Component: ARM Compiler 5.05 (build 41) Tool: armlink [4d0eb9]

==============================================================================

Section Cross References

    main.o(i.assert_nrf_callback) refers to app_error.o(i.app_error_handler) for app_error_handler
    main.o(i.ble_evt_handler) refers to app_error.o(i.app_error_handler_bare) for app_error_handler_bare
    main.o(i.ble_evt_handler) refers to ble_nus_c.o(i.ble_nus_c_handles_assign) for ble_nus_c_handles_assign
    main.o(i.ble_evt_handler) refers to ble_db_discovery.o(i.ble_db_discovery_start) for ble_db_discovery_start
    main.o(i.ble_evt_handler) refers to boards.o(i.bsp_board_led_on) for bsp_board_led_on
    main.o(i.ble_evt_handler) refers to ble_conn_state.o(i.ble_conn_state_n_centrals) for ble_conn_state_n_centrals
    main.o(i.ble_evt_handler) refers to boards.o(i.bsp_board_led_off) for bsp_board_led_off
    main.o(i.ble_evt_handler) refers to main.o(i.scan_start) for scan_start
    main.o(i.ble_evt_handler) refers to app_button.o(i.app_button_disable) for app_button_disable
    main.o(i.ble_evt_handler) refers to main.o(i.on_adv_report) for on_adv_report
    main.o(i.ble_evt_handler) refers to main.o(.bss) for m_ble_nus_c
    main.o(i.ble_evt_handler) refers to main.o(.data) for m_db_disc
    main.o(i.ble_nus_c_evt_handler) refers to ble_nus_c.o(i.ble_nus_c_handles_assign) for ble_nus_c_handles_assign
    main.o(i.ble_nus_c_evt_handler) refers to app_error.o(i.app_error_handler_bare) for app_error_handler_bare
    main.o(i.ble_nus_c_evt_handler) refers to ble_nus_c.o(i.ble_nus_c_tx_notif_enable) for ble_nus_c_tx_notif_enable
    main.o(i.ble_nus_c_evt_handler) refers to main.o(i.ble_nus_chars_received_uart_print) for ble_nus_chars_received_uart_print
    main.o(i.ble_nus_chars_received_uart_print) refers to boards.o(i.bsp_board_led_invert) for bsp_board_led_invert
    main.o(i.ble_nus_chars_received_uart_print) refers to app_uart_fifo.o(i.app_uart_put) for app_uart_put
    main.o(i.ble_nus_chars_received_uart_print) refers to app_error.o(i.app_error_handler_bare) for app_error_handler_bare
    main.o(i.ble_stack_init) refers to nrf_sdh.o(i.nrf_sdh_enable_request) for nrf_sdh_enable_request
    main.o(i.ble_stack_init) refers to app_error.o(i.app_error_handler_bare) for app_error_handler_bare
    main.o(i.ble_stack_init) refers to nrf_sdh_ble.o(i.nrf_sdh_ble_default_cfg_set) for nrf_sdh_ble_default_cfg_set
    main.o(i.ble_stack_init) refers to nrf_sdh_ble.o(i.nrf_sdh_ble_enable) for nrf_sdh_ble_enable
    main.o(i.button_event_handler) refers to main.o(i.led_status_send_to_all) for led_status_send_to_all
    main.o(i.button_event_handler) refers to app_error.o(i.app_error_handler_bare) for app_error_handler_bare
    main.o(i.buttons_init) refers to app_button.o(i.app_button_init) for app_button_init
    main.o(i.buttons_init) refers to app_error.o(i.app_error_handler_bare) for app_error_handler_bare
    main.o(i.buttons_init) refers to main.o(.data) for buttons
    main.o(i.db_disc_handler) refers to ble_nus_c.o(i.ble_nus_c_on_db_disc_evt) for ble_nus_c_on_db_disc_evt
    main.o(i.db_disc_handler) refers to main.o(.bss) for m_ble_nus_c
    main.o(i.db_discovery_init) refers to ble_db_discovery.o(i.ble_db_discovery_init) for ble_db_discovery_init
    main.o(i.db_discovery_init) refers to app_error.o(i.app_error_handler_bare) for app_error_handler_bare
    main.o(i.db_discovery_init) refers to main.o(i.db_disc_handler) for db_disc_handler
    main.o(i.gatt_init) refers to nrf_ble_gatt.o(i.nrf_ble_gatt_init) for nrf_ble_gatt_init
    main.o(i.gatt_init) refers to app_error.o(i.app_error_handler_bare) for app_error_handler_bare
    main.o(i.gatt_init) refers to main.o(.bss) for m_gatt
    main.o(i.leds_init) refers to boards.o(i.bsp_board_leds_init) for bsp_board_leds_init
    main.o(i.log_init) refers to app_error.o(i.app_error_handler_bare) for app_error_handler_bare
    main.o(i.main) refers to main.o(i.log_init) for log_init
    main.o(i.main) refers to main.o(i.timer_init) for timer_init
    main.o(i.main) refers to main.o(i.leds_init) for leds_init
    main.o(i.main) refers to main.o(i.buttons_init) for buttons_init
    main.o(i.main) refers to main.o(i.uart_init) for uart_init
    main.o(i.main) refers to main.o(i.ble_stack_init) for ble_stack_init
    main.o(i.main) refers to main.o(i.gatt_init) for gatt_init
    main.o(i.main) refers to main.o(i.db_discovery_init) for db_discovery_init
    main.o(i.main) refers to main.o(i.nus_c_init) for nus_c_init
    main.o(i.main) refers to ble_conn_state.o(i.ble_conn_state_init) for ble_conn_state_init
    main.o(i.main) refers to main.o(i.scan_start) for scan_start
    main.o(i.main) refers to boards.o(i.bsp_board_led_on) for bsp_board_led_on
    main.o(i.main) refers to main.o(i.power_manage) for power_manage
    main.o(i.nus_c_init) refers to ble_nus_c.o(i.ble_nus_c_init) for ble_nus_c_init
    main.o(i.nus_c_init) refers to app_error.o(i.app_error_handler_bare) for app_error_handler_bare
    main.o(i.nus_c_init) refers to main.o(i.ble_nus_c_evt_handler) for ble_nus_c_evt_handler
    main.o(i.nus_c_init) refers to main.o(.bss) for m_ble_nus_c
    main.o(i.on_adv_report) refers to main.o(i.adv_report_parse) for adv_report_parse
    main.o(i.on_adv_report) refers to strlen.o(.text) for strlen
    main.o(i.on_adv_report) refers to memcmp.o(.text) for memcmp
    main.o(i.on_adv_report) refers to main.o(.constdata) for m_target_periph_name
    main.o(i.power_manage) refers to app_error.o(i.app_error_handler_bare) for app_error_handler_bare
    main.o(i.scan_start) refers to app_error.o(i.app_error_handler_bare) for app_error_handler_bare
    main.o(i.scan_start) refers to bsp.o(i.bsp_indication_set) for bsp_indication_set
    main.o(i.scan_start) refers to main.o(.constdata) for m_scan_params
    main.o(i.timer_init) refers to app_timer.o(i.app_timer_init) for app_timer_init
    main.o(i.timer_init) refers to app_error.o(i.app_error_handler_bare) for app_error_handler_bare
    main.o(i.uart_event_handle) refers to app_uart_fifo.o(i.app_uart_get) for app_uart_get
    main.o(i.uart_event_handle) refers to ble_nus_c.o(i.ble_nus_c_string_send) for ble_nus_c_string_send
    main.o(i.uart_event_handle) refers to app_error.o(i.app_error_handler_bare) for app_error_handler_bare
    main.o(i.uart_event_handle) refers to ble_conn_state.o(i.ble_conn_state_n_centrals) for ble_conn_state_n_centrals
    main.o(i.uart_event_handle) refers to main.o(.bss) for data_array
    main.o(i.uart_event_handle) refers to main.o(.data) for index
    main.o(i.uart_init) refers to memcpya.o(.text) for __aeabi_memcpy4
    main.o(i.uart_init) refers to app_uart_fifo.o(i.app_uart_init) for app_uart_init
    main.o(i.uart_init) refers to app_error.o(i.app_error_handler_bare) for app_error_handler_bare
    main.o(i.uart_init) refers to main.o(.constdata) for .constdata
    main.o(i.uart_init) refers to main.o(.bss) for rx_buf
    main.o(i.uart_init) refers to main.o(i.uart_event_handle) for uart_event_handle
    main.o(.data) refers to main.o(i.button_event_handler) for button_event_handler
    main.o(sdh_ble_observers1) refers to nrf_ble_gatt.o(i.nrf_ble_gatt_on_ble_evt) for nrf_ble_gatt_on_ble_evt
    main.o(sdh_ble_observers1) refers to main.o(.bss) for m_gatt
    main.o(sdh_ble_observers1) refers to ble_db_discovery.o(i.ble_db_discovery_on_ble_evt) for ble_db_discovery_on_ble_evt
    main.o(sdh_ble_observers1) refers to main.o(.data) for m_db_disc
    main.o(sdh_ble_observers2) refers to ble_nus_c.o(i.ble_nus_c_on_ble_evt) for ble_nus_c_on_ble_evt
    main.o(sdh_ble_observers2) refers to main.o(.bss) for m_ble_nus_c
    main.o(sdh_ble_observers3) refers to main.o(i.ble_evt_handler) for ble_evt_handler
    boards.o(i.bsp_board_button_idx_to_pin) refers to boards.o(.constdata) for m_board_btn_list
    boards.o(i.bsp_board_button_state_get) refers to boards.o(.constdata) for m_board_btn_list
    boards.o(i.bsp_board_buttons_init) refers to boards.o(i.nrf_gpio_cfg) for nrf_gpio_cfg
    boards.o(i.bsp_board_buttons_init) refers to boards.o(.constdata) for m_board_btn_list
    boards.o(i.bsp_board_led_idx_to_pin) refers to boards.o(.constdata) for m_board_led_list
    boards.o(i.bsp_board_led_invert) refers to boards.o(.constdata) for m_board_led_list
    boards.o(i.bsp_board_led_off) refers to boards.o(i.nrf_gpio_pin_write) for nrf_gpio_pin_write
    boards.o(i.bsp_board_led_off) refers to boards.o(.constdata) for m_board_led_list
    boards.o(i.bsp_board_led_on) refers to boards.o(i.nrf_gpio_pin_write) for nrf_gpio_pin_write
    boards.o(i.bsp_board_led_on) refers to boards.o(.constdata) for m_board_led_list
    boards.o(i.bsp_board_led_state_get) refers to boards.o(.constdata) for m_board_led_list
    boards.o(i.bsp_board_leds_init) refers to boards.o(i.nrf_gpio_cfg) for nrf_gpio_cfg
    boards.o(i.bsp_board_leds_init) refers to boards.o(i.bsp_board_leds_off) for bsp_board_leds_off
    boards.o(i.bsp_board_leds_init) refers to boards.o(.constdata) for m_board_led_list
    boards.o(i.bsp_board_leds_off) refers to boards.o(i.bsp_board_led_off) for bsp_board_led_off
    boards.o(i.bsp_board_leds_on) refers to boards.o(i.bsp_board_led_on) for bsp_board_led_on
    boards.o(i.bsp_board_pin_to_button_idx) refers to boards.o(.constdata) for m_board_btn_list
    boards.o(i.bsp_board_pin_to_led_idx) refers to boards.o(.constdata) for m_board_led_list
    bsp.o(i.alert_timer_handler) refers to boards.o(i.bsp_board_led_invert) for bsp_board_led_invert
    bsp.o(i.bsp_button_event_handler) refers to boards.o(i.bsp_board_pin_to_button_idx) for bsp_board_pin_to_button_idx
    bsp.o(i.bsp_button_event_handler) refers to app_timer.o(i.app_timer_start) for app_timer_start
    bsp.o(i.bsp_button_event_handler) refers to app_timer.o(i.app_timer_stop) for app_timer_stop
    bsp.o(i.bsp_button_event_handler) refers to bsp.o(.bss) for m_events_list
    bsp.o(i.bsp_button_event_handler) refers to bsp.o(.data) for current_long_push_pin_no
    bsp.o(i.bsp_button_event_handler) refers to bsp.o(.constdata) for m_button_timer_id
    bsp.o(i.bsp_button_is_pressed) refers to boards.o(i.bsp_board_button_state_get) for bsp_board_button_state_get
    bsp.o(i.bsp_buttons_disable) refers to app_button.o(i.app_button_disable) for app_button_disable
    bsp.o(i.bsp_buttons_enable) refers to app_button.o(i.app_button_enable) for app_button_enable
    bsp.o(i.bsp_event_to_button_action_assign) refers to bsp.o(.bss) for m_events_list
    bsp.o(i.bsp_indication_set) refers to bsp.o(i.bsp_led_indication) for bsp_led_indication
    bsp.o(i.bsp_indication_set) refers to bsp.o(.data) for m_indication_type
    bsp.o(i.bsp_init) refers to bsp.o(i.bsp_event_to_button_action_assign) for bsp_event_to_button_action_assign
    bsp.o(i.bsp_init) refers to app_button.o(i.app_button_init) for app_button_init
    bsp.o(i.bsp_init) refers to app_button.o(i.app_button_enable) for app_button_enable
    bsp.o(i.bsp_init) refers to app_timer.o(i.app_timer_create) for app_timer_create
    bsp.o(i.bsp_init) refers to boards.o(i.bsp_board_leds_init) for bsp_board_leds_init
    bsp.o(i.bsp_init) refers to bsp.o(.data) for m_indication_type
    bsp.o(i.bsp_init) refers to bsp.o(.constdata) for app_buttons
    bsp.o(i.bsp_init) refers to bsp.o(i.button_timer_handler) for button_timer_handler
    bsp.o(i.bsp_init) refers to bsp.o(i.leds_timer_handler) for leds_timer_handler
    bsp.o(i.bsp_init) refers to bsp.o(i.alert_timer_handler) for alert_timer_handler
    bsp.o(i.bsp_led_indication) refers to bsp.o(i.leds_off) for leds_off
    bsp.o(i.bsp_led_indication) refers to boards.o(i.bsp_board_led_state_get) for bsp_board_led_state_get
    bsp.o(i.bsp_led_indication) refers to boards.o(i.bsp_board_led_off) for bsp_board_led_off
    bsp.o(i.bsp_led_indication) refers to boards.o(i.bsp_board_led_on) for bsp_board_led_on
    bsp.o(i.bsp_led_indication) refers to uldiv.o(.text) for __aeabi_uldivmod
    bsp.o(i.bsp_led_indication) refers to app_timer.o(i.app_timer_start) for app_timer_start
    bsp.o(i.bsp_led_indication) refers to boards.o(i.bsp_board_led_invert) for bsp_board_led_invert
    bsp.o(i.bsp_led_indication) refers to boards.o(i.bsp_board_leds_on) for bsp_board_leds_on
    bsp.o(i.bsp_led_indication) refers to app_timer.o(i.app_timer_stop) for app_timer_stop
    bsp.o(i.bsp_led_indication) refers to bsp.o(.data) for m_leds_clear
    bsp.o(i.bsp_led_indication) refers to bsp.o(.constdata) for m_leds_timer_id
    bsp.o(i.bsp_wakeup_button_disable) refers to boards.o(i.bsp_board_button_idx_to_pin) for bsp_board_button_idx_to_pin
    bsp.o(i.bsp_wakeup_button_disable) refers to bsp.o(i.nrf_gpio_cfg_sense_set) for nrf_gpio_cfg_sense_set
    bsp.o(i.bsp_wakeup_button_enable) refers to boards.o(i.bsp_board_button_idx_to_pin) for bsp_board_button_idx_to_pin
    bsp.o(i.bsp_wakeup_button_enable) refers to bsp.o(i.nrf_gpio_cfg_sense_set) for nrf_gpio_cfg_sense_set
    bsp.o(i.button_timer_handler) refers to bsp.o(i.bsp_button_event_handler) for bsp_button_event_handler
    bsp.o(i.leds_off) refers to boards.o(i.bsp_board_led_off) for bsp_board_led_off
    bsp.o(i.leds_off) refers to boards.o(i.bsp_board_leds_off) for bsp_board_leds_off
    bsp.o(i.leds_off) refers to bsp.o(.data) for m_alert_on
    bsp.o(i.leds_timer_handler) refers to bsp.o(i.bsp_led_indication) for bsp_led_indication
    bsp.o(i.leds_timer_handler) refers to bsp.o(.data) for m_indication_type
    bsp.o(.constdata) refers to bsp.o(.bss) for m_leds_timer_id_data
    bsp.o(.constdata) refers to bsp.o(i.bsp_button_event_handler) for bsp_button_event_handler
    bsp_btn_ble.o(i.advertising_buttons_configure) refers to bsp.o(i.bsp_event_to_button_action_assign) for bsp_event_to_button_action_assign
    bsp_btn_ble.o(i.ble_evt_handler) refers to bsp_btn_ble.o(i.connection_buttons_configure) for connection_buttons_configure
    bsp_btn_ble.o(i.ble_evt_handler) refers to bsp_btn_ble.o(i.advertising_buttons_configure) for advertising_buttons_configure
    bsp_btn_ble.o(i.ble_evt_handler) refers to bsp_btn_ble.o(.data) for m_num_connections
    bsp_btn_ble.o(i.bsp_btn_ble_init) refers to bsp_btn_ble.o(i.startup_event_extract) for startup_event_extract
    bsp_btn_ble.o(i.bsp_btn_ble_init) refers to bsp_btn_ble.o(i.advertising_buttons_configure) for advertising_buttons_configure
    bsp_btn_ble.o(i.bsp_btn_ble_init) refers to bsp_btn_ble.o(.data) for m_error_handler
    bsp_btn_ble.o(i.bsp_btn_ble_sleep_mode_prepare) refers to bsp.o(i.bsp_wakeup_button_enable) for bsp_wakeup_button_enable
    bsp_btn_ble.o(i.connection_buttons_configure) refers to bsp.o(i.bsp_event_to_button_action_assign) for bsp_event_to_button_action_assign
    bsp_btn_ble.o(i.startup_event_extract) refers to bsp.o(i.bsp_button_is_pressed) for bsp_button_is_pressed
    bsp_btn_ble.o(sdh_ble_observers1) refers to bsp_btn_ble.o(i.ble_evt_handler) for ble_evt_handler
    bsp_nfc.o(i.bsp_nfc_btn_deinit) refers to bsp.o(i.bsp_event_to_button_action_assign) for bsp_event_to_button_action_assign
    bsp_nfc.o(i.bsp_nfc_btn_init) refers to bsp.o(i.bsp_event_to_button_action_assign) for bsp_event_to_button_action_assign
    bsp_nfc.o(i.bsp_nfc_sleep_mode_prepare) refers to app_util_platform.o(i.app_util_critical_region_enter) for app_util_critical_region_enter
    bsp_nfc.o(i.bsp_nfc_sleep_mode_prepare) refers to app_util_platform.o(i.app_util_critical_region_exit) for app_util_critical_region_exit
    ble_advdata.o(i.appearance_encode) refers to ble_advdata.o(i.uint16_encode) for uint16_encode
    ble_advdata.o(i.ble_advdata_encode) refers to ble_advdata.o(i.ble_device_addr_encode) for ble_device_addr_encode
    ble_advdata.o(i.ble_advdata_encode) refers to ble_advdata.o(i.appearance_encode) for appearance_encode
    ble_advdata.o(i.ble_advdata_encode) refers to ble_advdata.o(i.flags_encode) for flags_encode
    ble_advdata.o(i.ble_advdata_encode) refers to ble_advdata.o(i.tx_power_level_encode) for tx_power_level_encode
    ble_advdata.o(i.ble_advdata_encode) refers to ble_advdata.o(i.uuid_list_encode) for uuid_list_encode
    ble_advdata.o(i.ble_advdata_encode) refers to ble_advdata.o(i.conn_int_encode) for conn_int_encode
    ble_advdata.o(i.ble_advdata_encode) refers to ble_advdata.o(i.manuf_specific_data_encode) for manuf_specific_data_encode
    ble_advdata.o(i.ble_advdata_encode) refers to ble_advdata.o(i.service_data_encode) for service_data_encode
    ble_advdata.o(i.ble_advdata_encode) refers to ble_advdata.o(i.name_encode) for name_encode
    ble_advdata.o(i.ble_advdata_set) refers to ble_advdata.o(i.advdata_check) for advdata_check
    ble_advdata.o(i.ble_advdata_set) refers to ble_advdata.o(i.ble_advdata_encode) for ble_advdata_encode
    ble_advdata.o(i.ble_advdata_set) refers to ble_advdata.o(i.srdata_check) for srdata_check
    ble_advdata.o(i.conn_int_encode) refers to ble_advdata.o(i.conn_int_check) for conn_int_check
    ble_advdata.o(i.conn_int_encode) refers to ble_advdata.o(i.uint16_encode) for uint16_encode
    ble_advdata.o(i.manuf_specific_data_encode) refers to ble_advdata.o(i.uint16_encode) for uint16_encode
    ble_advdata.o(i.manuf_specific_data_encode) refers to memcpya.o(.text) for __aeabi_memcpy
    ble_advdata.o(i.service_data_encode) refers to ble_advdata.o(i.uint16_encode) for uint16_encode
    ble_advdata.o(i.service_data_encode) refers to memcpya.o(.text) for __aeabi_memcpy
    ble_advdata.o(i.uuid_list_encode) refers to ble_advdata.o(i.uuid_list_sized_encode) for uuid_list_sized_encode
    ble_advertising.o(i.adv_mode_next_avail_get) refers to ble_advertising.o(i.addr_is_valid) for addr_is_valid
    ble_advertising.o(i.ble_advertising_init) refers to memcpya.o(.text) for __aeabi_memcpy4
    ble_advertising.o(i.ble_advertising_init) refers to memseta.o(.text) for __aeabi_memclr4
    ble_advertising.o(i.ble_advertising_init) refers to ble_advdata.o(i.ble_advdata_set) for ble_advdata_set
    ble_advertising.o(i.ble_advertising_modes_config_set) refers to memcpya.o(.text) for __aeabi_memcpy4
    ble_advertising.o(i.ble_advertising_on_ble_evt) refers to ble_advertising.o(i.on_connected) for on_connected
    ble_advertising.o(i.ble_advertising_on_ble_evt) refers to ble_advertising.o(i.on_disconnected) for on_disconnected
    ble_advertising.o(i.ble_advertising_on_ble_evt) refers to ble_advertising.o(i.on_timeout) for on_timeout
    ble_advertising.o(i.ble_advertising_on_sys_evt) refers to ble_advertising.o(i.ble_advertising_start) for ble_advertising_start
    ble_advertising.o(i.ble_advertising_restart_without_whitelist) refers to ble_advdata.o(i.ble_advdata_set) for ble_advdata_set
    ble_advertising.o(i.ble_advertising_restart_without_whitelist) refers to ble_advertising.o(i.ble_advertising_start) for ble_advertising_start
    ble_advertising.o(i.ble_advertising_start) refers to ble_advertising.o(i.flash_access_in_progress) for flash_access_in_progress
    ble_advertising.o(i.ble_advertising_start) refers to ble_advertising.o(i.adv_mode_next_avail_get) for adv_mode_next_avail_get
    ble_advertising.o(i.ble_advertising_start) refers to ble_advertising.o(i.set_adv_mode_directed) for set_adv_mode_directed
    ble_advertising.o(i.ble_advertising_start) refers to ble_advertising.o(i.set_adv_mode_directed_slow) for set_adv_mode_directed_slow
    ble_advertising.o(i.ble_advertising_start) refers to ble_advertising.o(i.set_adv_mode_fast) for set_adv_mode_fast
    ble_advertising.o(i.ble_advertising_start) refers to ble_advertising.o(i.set_adv_mode_slow) for set_adv_mode_slow
    ble_advertising.o(i.flash_access_in_progress) refers to nrf_fstorage.o(i.nrf_fstorage_is_busy) for nrf_fstorage_is_busy
    ble_advertising.o(i.on_disconnected) refers to ble_advertising.o(i.ble_advertising_start) for ble_advertising_start
    ble_advertising.o(i.on_timeout) refers to ble_advertising.o(i.adv_mode_next_get) for adv_mode_next_get
    ble_advertising.o(i.on_timeout) refers to ble_advertising.o(i.ble_advertising_start) for ble_advertising_start
    ble_advertising.o(i.set_adv_mode_fast) refers to ble_advertising.o(i.whitelist_has_entries) for whitelist_has_entries
    ble_advertising.o(i.set_adv_mode_fast) refers to ble_advdata.o(i.ble_advdata_set) for ble_advdata_set
    ble_advertising.o(i.set_adv_mode_slow) refers to ble_advertising.o(i.whitelist_has_entries) for whitelist_has_entries
    ble_advertising.o(i.set_adv_mode_slow) refers to ble_advdata.o(i.ble_advdata_set) for ble_advdata_set
    ble_conn_state.o(i.bcs_internal_state_reset) refers to memseta.o(.text) for __aeabi_memclr4
    ble_conn_state.o(i.bcs_internal_state_reset) refers to ble_conn_state.o(.bss) for m_bcs
    ble_conn_state.o(i.ble_conn_state_central_handles) refers to sdk_mapped_flags.o(i.sdk_mapped_flags_key_list_get) for sdk_mapped_flags_key_list_get
    ble_conn_state.o(i.ble_conn_state_central_handles) refers to ble_conn_state.o(.bss) for m_bcs
    ble_conn_state.o(i.ble_conn_state_conn_handles) refers to sdk_mapped_flags.o(i.sdk_mapped_flags_key_list_get) for sdk_mapped_flags_key_list_get
    ble_conn_state.o(i.ble_conn_state_conn_handles) refers to ble_conn_state.o(.bss) for m_bcs
    ble_conn_state.o(i.ble_conn_state_conn_idx) refers to sdk_mapped_flags.o(i.sdk_mapped_flags_get_by_key_w_idx) for sdk_mapped_flags_get_by_key_w_idx
    ble_conn_state.o(i.ble_conn_state_conn_idx) refers to ble_conn_state.o(.bss) for m_bcs
    ble_conn_state.o(i.ble_conn_state_encrypted) refers to sdk_mapped_flags.o(i.sdk_mapped_flags_get_by_key) for sdk_mapped_flags_get_by_key
    ble_conn_state.o(i.ble_conn_state_encrypted) refers to ble_conn_state.o(.bss) for m_bcs
    ble_conn_state.o(i.ble_conn_state_init) refers to ble_conn_state.o(i.bcs_internal_state_reset) for bcs_internal_state_reset
    ble_conn_state.o(i.ble_conn_state_mitm_protected) refers to sdk_mapped_flags.o(i.sdk_mapped_flags_get_by_key) for sdk_mapped_flags_get_by_key
    ble_conn_state.o(i.ble_conn_state_mitm_protected) refers to ble_conn_state.o(.bss) for m_bcs
    ble_conn_state.o(i.ble_conn_state_n_centrals) refers to sdk_mapped_flags.o(i.sdk_mapped_flags_n_flags_set) for sdk_mapped_flags_n_flags_set
    ble_conn_state.o(i.ble_conn_state_n_centrals) refers to ble_conn_state.o(.bss) for m_bcs
    ble_conn_state.o(i.ble_conn_state_n_connections) refers to sdk_mapped_flags.o(i.sdk_mapped_flags_n_flags_set) for sdk_mapped_flags_n_flags_set
    ble_conn_state.o(i.ble_conn_state_n_connections) refers to ble_conn_state.o(.bss) for m_bcs
    ble_conn_state.o(i.ble_conn_state_n_peripherals) refers to sdk_mapped_flags.o(i.sdk_mapped_flags_n_flags_set) for sdk_mapped_flags_n_flags_set
    ble_conn_state.o(i.ble_conn_state_n_peripherals) refers to ble_conn_state.o(.bss) for m_bcs
    ble_conn_state.o(i.ble_conn_state_periph_handles) refers to sdk_mapped_flags.o(i.sdk_mapped_flags_key_list_get) for sdk_mapped_flags_key_list_get
    ble_conn_state.o(i.ble_conn_state_periph_handles) refers to ble_conn_state.o(.bss) for m_bcs
    ble_conn_state.o(i.ble_conn_state_role) refers to sdk_mapped_flags.o(i.sdk_mapped_flags_get_by_key) for sdk_mapped_flags_get_by_key
    ble_conn_state.o(i.ble_conn_state_role) refers to ble_conn_state.o(.bss) for m_bcs
    ble_conn_state.o(i.ble_conn_state_status) refers to sdk_mapped_flags.o(i.sdk_mapped_flags_get_by_key) for sdk_mapped_flags_get_by_key
    ble_conn_state.o(i.ble_conn_state_status) refers to ble_conn_state.o(.bss) for m_bcs
    ble_conn_state.o(i.ble_conn_state_user_flag_acquire) refers to ble_conn_state.o(i.user_flag_is_acquired) for user_flag_is_acquired
    ble_conn_state.o(i.ble_conn_state_user_flag_acquire) refers to ble_conn_state.o(i.user_flag_acquire) for user_flag_acquire
    ble_conn_state.o(i.ble_conn_state_user_flag_collection) refers to ble_conn_state.o(i.user_flag_is_acquired) for user_flag_is_acquired
    ble_conn_state.o(i.ble_conn_state_user_flag_collection) refers to ble_conn_state.o(.bss) for m_bcs
    ble_conn_state.o(i.ble_conn_state_user_flag_get) refers to ble_conn_state.o(i.user_flag_is_acquired) for user_flag_is_acquired
    ble_conn_state.o(i.ble_conn_state_user_flag_get) refers to sdk_mapped_flags.o(i.sdk_mapped_flags_get_by_key) for sdk_mapped_flags_get_by_key
    ble_conn_state.o(i.ble_conn_state_user_flag_get) refers to ble_conn_state.o(.bss) for m_bcs
    ble_conn_state.o(i.ble_conn_state_user_flag_set) refers to ble_conn_state.o(i.user_flag_is_acquired) for user_flag_is_acquired
    ble_conn_state.o(i.ble_conn_state_user_flag_set) refers to sdk_mapped_flags.o(i.sdk_mapped_flags_update_by_key) for sdk_mapped_flags_update_by_key
    ble_conn_state.o(i.ble_conn_state_user_flag_set) refers to ble_conn_state.o(.bss) for m_bcs
    ble_conn_state.o(i.ble_conn_state_valid) refers to sdk_mapped_flags.o(i.sdk_mapped_flags_get_by_key) for sdk_mapped_flags_get_by_key
    ble_conn_state.o(i.ble_conn_state_valid) refers to ble_conn_state.o(.bss) for m_bcs
    ble_conn_state.o(i.ble_evt_handler) refers to ble_conn_state.o(i.record_purge_disconnected) for record_purge_disconnected
    ble_conn_state.o(i.ble_evt_handler) refers to ble_conn_state.o(i.record_activate) for record_activate
    ble_conn_state.o(i.ble_evt_handler) refers to app_error.o(i.app_error_handler_bare) for app_error_handler_bare
    ble_conn_state.o(i.ble_evt_handler) refers to sdk_mapped_flags.o(i.sdk_mapped_flags_update_by_key) for sdk_mapped_flags_update_by_key
    ble_conn_state.o(i.ble_evt_handler) refers to ble_conn_state.o(i.record_set_disconnected) for record_set_disconnected
    ble_conn_state.o(i.ble_evt_handler) refers to ble_conn_state.o(.bss) for m_bcs
    ble_conn_state.o(i.record_activate) refers to sdk_mapped_flags.o(i.sdk_mapped_flags_first_key_index_get) for sdk_mapped_flags_first_key_index_get
    ble_conn_state.o(i.record_activate) refers to sdk_mapped_flags.o(i.sdk_mapped_flags_update_by_key) for sdk_mapped_flags_update_by_key
    ble_conn_state.o(i.record_activate) refers to ble_conn_state.o(.bss) for m_bcs
    ble_conn_state.o(i.record_invalidate) refers to sdk_mapped_flags.o(i.sdk_mapped_flags_bulk_update_by_key) for sdk_mapped_flags_bulk_update_by_key
    ble_conn_state.o(i.record_invalidate) refers to ble_conn_state.o(.bss) for m_bcs
    ble_conn_state.o(i.record_purge_disconnected) refers to sdk_mapped_flags.o(i.sdk_mapped_flags_key_list_get) for sdk_mapped_flags_key_list_get
    ble_conn_state.o(i.record_purge_disconnected) refers to memcpya.o(.text) for __aeabi_memcpy4
    ble_conn_state.o(i.record_purge_disconnected) refers to ble_conn_state.o(i.record_invalidate) for record_invalidate
    ble_conn_state.o(i.record_purge_disconnected) refers to ble_conn_state.o(.bss) for m_bcs
    ble_conn_state.o(i.record_set_disconnected) refers to sdk_mapped_flags.o(i.sdk_mapped_flags_update_by_key) for sdk_mapped_flags_update_by_key
    ble_conn_state.o(i.record_set_disconnected) refers to ble_conn_state.o(.bss) for m_bcs
    ble_conn_state.o(i.user_flag_acquire) refers to ble_conn_state.o(.bss) for m_bcs
    ble_conn_state.o(i.user_flag_is_acquired) refers to ble_conn_state.o(.bss) for m_bcs
    ble_conn_state.o(sdh_ble_observers0) refers to ble_conn_state.o(i.ble_evt_handler) for ble_evt_handler
    ble_db_discovery.o(i.ble_db_discovery_close) refers to ble_db_discovery.o(.data) for m_num_of_handlers_reg
    ble_db_discovery.o(i.ble_db_discovery_evt_register) refers to ble_db_discovery.o(i.registered_handler_set) for registered_handler_set
    ble_db_discovery.o(i.ble_db_discovery_evt_register) refers to ble_db_discovery.o(.data) for m_initialized
    ble_db_discovery.o(i.ble_db_discovery_init) refers to ble_db_discovery.o(.data) for m_num_of_handlers_reg
    ble_db_discovery.o(i.ble_db_discovery_on_ble_evt) refers to ble_db_discovery.o(i.on_primary_srv_discovery_rsp) for on_primary_srv_discovery_rsp
    ble_db_discovery.o(i.ble_db_discovery_on_ble_evt) refers to ble_db_discovery.o(i.on_characteristic_discovery_rsp) for on_characteristic_discovery_rsp
    ble_db_discovery.o(i.ble_db_discovery_on_ble_evt) refers to ble_db_discovery.o(i.on_descriptor_discovery_rsp) for on_descriptor_discovery_rsp
    ble_db_discovery.o(i.ble_db_discovery_on_ble_evt) refers to ble_db_discovery.o(i.on_disconnected) for on_disconnected
    ble_db_discovery.o(i.ble_db_discovery_on_ble_evt) refers to ble_db_discovery.o(i.discovery_start) for discovery_start
    ble_db_discovery.o(i.ble_db_discovery_on_ble_evt) refers to ble_db_discovery.o(.data) for m_initialized
    ble_db_discovery.o(i.ble_db_discovery_start) refers to ble_db_discovery.o(i.discovery_start) for discovery_start
    ble_db_discovery.o(i.ble_db_discovery_start) refers to ble_db_discovery.o(.data) for m_initialized
    ble_db_discovery.o(i.descriptors_discover) refers to ble_db_discovery.o(i.is_desc_discovery_reqd) for is_desc_discovery_reqd
    ble_db_discovery.o(i.discovery_complete_evt_trigger) refers to ble_db_discovery.o(i.registered_handler_get) for registered_handler_get
    ble_db_discovery.o(i.discovery_complete_evt_trigger) refers to memcpya.o(.text) for __aeabi_memcpy
    ble_db_discovery.o(i.discovery_complete_evt_trigger) refers to ble_db_discovery.o(i.pending_user_evts_send) for pending_user_evts_send
    ble_db_discovery.o(i.discovery_complete_evt_trigger) refers to ble_db_discovery.o(.data) for m_pending_usr_evt_index
    ble_db_discovery.o(i.discovery_complete_evt_trigger) refers to ble_db_discovery.o(.bss) for m_pending_user_evts
    ble_db_discovery.o(i.discovery_error_evt_trigger) refers to ble_db_discovery.o(i.registered_handler_get) for registered_handler_get
    ble_db_discovery.o(i.discovery_error_evt_trigger) refers to memcpya.o(.text) for __aeabi_memcpy4
    ble_db_discovery.o(i.discovery_error_evt_trigger) refers to ble_db_discovery.o(.constdata) for .constdata
    ble_db_discovery.o(i.discovery_start) refers to memseta.o(.text) for __aeabi_memclr
    ble_db_discovery.o(i.discovery_start) refers to ble_db_discovery.o(.data) for m_pending_usr_evt_index
    ble_db_discovery.o(i.discovery_start) refers to ble_db_discovery.o(.bss) for m_registered_handlers
    ble_db_discovery.o(i.on_characteristic_discovery_rsp) refers to ble_db_discovery.o(i.is_char_discovery_reqd) for is_char_discovery_reqd
    ble_db_discovery.o(i.on_characteristic_discovery_rsp) refers to ble_db_discovery.o(i.characteristics_discover) for characteristics_discover
    ble_db_discovery.o(i.on_characteristic_discovery_rsp) refers to ble_db_discovery.o(i.discovery_error_evt_trigger) for discovery_error_evt_trigger
    ble_db_discovery.o(i.on_characteristic_discovery_rsp) refers to ble_db_discovery.o(i.descriptors_discover) for descriptors_discover
    ble_db_discovery.o(i.on_characteristic_discovery_rsp) refers to ble_db_discovery.o(i.discovery_complete_evt_trigger) for discovery_complete_evt_trigger
    ble_db_discovery.o(i.on_characteristic_discovery_rsp) refers to ble_db_discovery.o(i.on_srv_disc_completion) for on_srv_disc_completion
    ble_db_discovery.o(i.on_characteristic_discovery_rsp) refers to ble_db_discovery.o(.bss) for m_pending_user_evts
    ble_db_discovery.o(i.on_descriptor_discovery_rsp) refers to ble_db_discovery.o(i.descriptors_discover) for descriptors_discover
    ble_db_discovery.o(i.on_descriptor_discovery_rsp) refers to ble_db_discovery.o(i.discovery_error_evt_trigger) for discovery_error_evt_trigger
    ble_db_discovery.o(i.on_descriptor_discovery_rsp) refers to ble_db_discovery.o(i.discovery_complete_evt_trigger) for discovery_complete_evt_trigger
    ble_db_discovery.o(i.on_descriptor_discovery_rsp) refers to ble_db_discovery.o(i.on_srv_disc_completion) for on_srv_disc_completion
    ble_db_discovery.o(i.on_descriptor_discovery_rsp) refers to ble_db_discovery.o(.bss) for m_pending_user_evts
    ble_db_discovery.o(i.on_primary_srv_discovery_rsp) refers to ble_db_discovery.o(i.characteristics_discover) for characteristics_discover
    ble_db_discovery.o(i.on_primary_srv_discovery_rsp) refers to ble_db_discovery.o(i.discovery_error_evt_trigger) for discovery_error_evt_trigger
    ble_db_discovery.o(i.on_primary_srv_discovery_rsp) refers to ble_db_discovery.o(i.discovery_complete_evt_trigger) for discovery_complete_evt_trigger
    ble_db_discovery.o(i.on_primary_srv_discovery_rsp) refers to ble_db_discovery.o(i.on_srv_disc_completion) for on_srv_disc_completion
    ble_db_discovery.o(i.on_primary_srv_discovery_rsp) refers to ble_db_discovery.o(.bss) for m_pending_user_evts
    ble_db_discovery.o(i.on_srv_disc_completion) refers to ble_db_discovery.o(i.discovery_error_evt_trigger) for discovery_error_evt_trigger
    ble_db_discovery.o(i.on_srv_disc_completion) refers to ble_db_discovery.o(.data) for m_num_of_handlers_reg
    ble_db_discovery.o(i.on_srv_disc_completion) refers to ble_db_discovery.o(.bss) for m_registered_handlers
    ble_db_discovery.o(i.pending_user_evts_send) refers to ble_db_discovery.o(.bss) for m_pending_user_evts
    ble_db_discovery.o(i.pending_user_evts_send) refers to ble_db_discovery.o(.data) for m_num_of_handlers_reg
    ble_db_discovery.o(i.registered_handler_get) refers to ble_db_discovery.o(.bss) for m_registered_handlers
    ble_db_discovery.o(i.registered_handler_get) refers to ble_db_discovery.o(.data) for m_evt_handler
    ble_db_discovery.o(i.registered_handler_set) refers to ble_db_discovery.o(i.registered_handler_get) for registered_handler_get
    ble_db_discovery.o(i.registered_handler_set) refers to ble_db_discovery.o(.data) for m_num_of_handlers_reg
    ble_db_discovery.o(i.registered_handler_set) refers to ble_db_discovery.o(.bss) for m_registered_handlers
    ble_srv_common.o(i.ble_srv_ascii_to_utf8) refers to strlen.o(.text) for strlen
    ble_srv_common.o(i.ble_srv_is_indication_enabled) refers to ble_srv_common.o(i.uint16_decode) for uint16_decode
    ble_srv_common.o(i.ble_srv_is_notification_enabled) refers to ble_srv_common.o(i.uint16_decode) for uint16_decode
    ble_srv_common.o(i.ble_srv_report_ref_encode) refers to app_error.o(i.app_error_handler_bare) for app_error_handler_bare
    ble_srv_common.o(i.characteristic_add) refers to ble_srv_common.o(i.set_security_req) for set_security_req
    ble_srv_common.o(i.characteristic_add) refers to memseta.o(.text) for __aeabi_memclr4
    ble_srv_common.o(i.descriptor_add) refers to memseta.o(.text) for __aeabi_memclr4
    ble_srv_common.o(i.descriptor_add) refers to ble_srv_common.o(i.set_security_req) for set_security_req
    nrf_ble_gatt.o(i.nrf_ble_gatt_init) refers to nrf_ble_gatt.o(i.link_init) for link_init
    nrf_ble_gatt.o(i.nrf_ble_gatt_on_ble_evt) refers to nrf_ble_gatt.o(i.on_connected_evt) for on_connected_evt
    nrf_ble_gatt.o(i.nrf_ble_gatt_on_ble_evt) refers to nrf_ble_gatt.o(i.on_disconnected_evt) for on_disconnected_evt
    nrf_ble_gatt.o(i.nrf_ble_gatt_on_ble_evt) refers to nrf_ble_gatt.o(i.on_exchange_mtu_rsp_evt) for on_exchange_mtu_rsp_evt
    nrf_ble_gatt.o(i.nrf_ble_gatt_on_ble_evt) refers to nrf_ble_gatt.o(i.on_exchange_mtu_request_evt) for on_exchange_mtu_request_evt
    nrf_ble_gatt.o(i.nrf_ble_gatt_on_ble_evt) refers to nrf_ble_gatt.o(i.on_data_length_update_evt) for on_data_length_update_evt
    nrf_ble_gatt.o(i.nrf_ble_gatt_on_ble_evt) refers to nrf_ble_gatt.o(i.on_data_length_update_request_evt) for on_data_length_update_request_evt
    nrf_ble_gatt.o(i.on_connected_evt) refers to nrf_ble_gatt.o(i.data_length_update) for data_length_update
    nrf_ble_gatt.o(i.on_data_length_update_evt) refers to memcpya.o(.text) for __aeabi_memcpy4
    nrf_ble_gatt.o(i.on_data_length_update_evt) refers to nrf_ble_gatt.o(.constdata) for .constdata
    nrf_ble_gatt.o(i.on_disconnected_evt) refers to nrf_ble_gatt.o(i.link_init) for link_init
    nrf_ble_gatt.o(i.on_exchange_mtu_request_evt) refers to nrf_ble_gatt.o(.constdata) for .constdata
    nrf_ble_gatt.o(i.on_exchange_mtu_rsp_evt) refers to nrf_ble_gatt.o(.constdata) for .constdata
    ble_nus_c.o(i.ble_nus_c_init) refers to ble_db_discovery.o(i.ble_db_discovery_evt_register) for ble_db_discovery_evt_register
    ble_nus_c.o(i.ble_nus_c_init) refers to ble_nus_c.o(.constdata) for .constdata
    ble_nus_c.o(i.ble_nus_c_on_ble_evt) refers to ble_nus_c.o(i.on_hvx) for on_hvx
    ble_nus_c.o(i.ble_nus_c_on_db_disc_evt) refers to memseta.o(.text) for __aeabi_memclr4
    ble_nus_c.o(i.ble_nus_c_string_send) refers to ble_nus_c.o(.constdata) for .constdata
    ble_nus_c.o(i.ble_nus_c_tx_notif_enable) refers to ble_nus_c.o(i.cccd_configure) for cccd_configure
    ble_nus_c.o(i.cccd_configure) refers to ble_nus_c.o(.constdata) for .constdata
    nrf_drv_clock.o(i.POWER_CLOCK_IRQHandler) refers to nrf_drv_clock.o(i.nrf_clock_event_check) for nrf_clock_event_check
    nrf_drv_clock.o(i.POWER_CLOCK_IRQHandler) refers to nrf_drv_clock.o(i.nrf_clock_event_clear) for nrf_clock_event_clear
    nrf_drv_clock.o(i.POWER_CLOCK_IRQHandler) refers to nrf_drv_clock.o(i.nrf_clock_int_disable) for nrf_clock_int_disable
    nrf_drv_clock.o(i.POWER_CLOCK_IRQHandler) refers to nrf_drv_clock.o(i.clock_clk_started_notify) for clock_clk_started_notify
    nrf_drv_clock.o(i.POWER_CLOCK_IRQHandler) refers to nrf_drv_clock.o(.bss) for m_clock_cb
    nrf_drv_clock.o(i.clock_clk_started_notify) refers to nrf_drv_clock.o(i.item_dequeue) for item_dequeue
    nrf_drv_clock.o(i.clock_clk_started_notify) refers to nrf_drv_clock.o(.bss) for m_clock_cb
    nrf_drv_clock.o(i.hfclk_start) refers to nrf_sdh.o(i.nrf_sdh_is_enabled) for nrf_sdh_is_enabled
    nrf_drv_clock.o(i.hfclk_start) refers to nrf_drv_clock.o(i.nrf_clock_event_clear) for nrf_clock_event_clear
    nrf_drv_clock.o(i.hfclk_start) refers to nrf_drv_clock.o(i.nrf_clock_int_enable) for nrf_clock_int_enable
    nrf_drv_clock.o(i.hfclk_start) refers to nrf_drv_clock.o(i.nrf_clock_task_trigger) for nrf_clock_task_trigger
    nrf_drv_clock.o(i.hfclk_stop) refers to nrf_sdh.o(i.nrf_sdh_is_enabled) for nrf_sdh_is_enabled
    nrf_drv_clock.o(i.hfclk_stop) refers to nrf_drv_clock.o(i.nrf_clock_task_trigger) for nrf_clock_task_trigger
    nrf_drv_clock.o(i.hfclk_stop) refers to nrf_drv_clock.o(i.nrf_clock_hf_is_running) for nrf_clock_hf_is_running
    nrf_drv_clock.o(i.hfclk_stop) refers to nrf_drv_clock.o(.bss) for m_clock_cb
    nrf_drv_clock.o(i.lfclk_start) refers to nrf_drv_clock.o(i.nrf_clock_event_clear) for nrf_clock_event_clear
    nrf_drv_clock.o(i.lfclk_start) refers to nrf_drv_clock.o(i.nrf_clock_int_enable) for nrf_clock_int_enable
    nrf_drv_clock.o(i.lfclk_start) refers to nrf_drv_clock.o(i.nrf_clock_task_trigger) for nrf_clock_task_trigger
    nrf_drv_clock.o(i.lfclk_stop) refers to nrf_drv_clock.o(i.nrf_clock_task_trigger) for nrf_clock_task_trigger
    nrf_drv_clock.o(i.lfclk_stop) refers to nrf_drv_clock.o(i.nrf_clock_lf_is_running) for nrf_clock_lf_is_running
    nrf_drv_clock.o(i.lfclk_stop) refers to nrf_drv_clock.o(.bss) for m_clock_cb
    nrf_drv_clock.o(i.nrf_drv_clock_hfclk_is_running) refers to nrf_sdh.o(i.nrf_sdh_is_enabled) for nrf_sdh_is_enabled
    nrf_drv_clock.o(i.nrf_drv_clock_hfclk_is_running) refers to nrf_drv_clock.o(i.nrf_clock_hf_is_running) for nrf_clock_hf_is_running
    nrf_drv_clock.o(i.nrf_drv_clock_hfclk_release) refers to app_util_platform.o(i.app_util_critical_region_enter) for app_util_critical_region_enter
    nrf_drv_clock.o(i.nrf_drv_clock_hfclk_release) refers to nrf_drv_clock.o(i.hfclk_stop) for hfclk_stop
    nrf_drv_clock.o(i.nrf_drv_clock_hfclk_release) refers to app_util_platform.o(i.app_util_critical_region_exit) for app_util_critical_region_exit
    nrf_drv_clock.o(i.nrf_drv_clock_hfclk_release) refers to nrf_drv_clock.o(.bss) for m_clock_cb
    nrf_drv_clock.o(i.nrf_drv_clock_hfclk_request) refers to app_util_platform.o(i.app_util_critical_region_enter) for app_util_critical_region_enter
    nrf_drv_clock.o(i.nrf_drv_clock_hfclk_request) refers to app_util_platform.o(i.app_util_critical_region_exit) for app_util_critical_region_exit
    nrf_drv_clock.o(i.nrf_drv_clock_hfclk_request) refers to nrf_drv_clock.o(i.item_enqueue) for item_enqueue
    nrf_drv_clock.o(i.nrf_drv_clock_hfclk_request) refers to nrf_drv_clock.o(i.hfclk_start) for hfclk_start
    nrf_drv_clock.o(i.nrf_drv_clock_hfclk_request) refers to nrf_drv_clock.o(.bss) for m_clock_cb
    nrf_drv_clock.o(i.nrf_drv_clock_init) refers to nrf_drv_common.o(i.nrf_drv_common_irq_enable) for nrf_drv_common_irq_enable
    nrf_drv_clock.o(i.nrf_drv_clock_init) refers to nrf_sdh.o(i.nrf_sdh_is_enabled) for nrf_sdh_is_enabled
    nrf_drv_clock.o(i.nrf_drv_clock_init) refers to nrf_drv_clock.o(.bss) for m_clock_cb
    nrf_drv_clock.o(i.nrf_drv_clock_init_check) refers to nrf_drv_clock.o(.bss) for m_clock_cb
    nrf_drv_clock.o(i.nrf_drv_clock_lfclk_is_running) refers to nrf_sdh.o(i.nrf_sdh_is_enabled) for nrf_sdh_is_enabled
    nrf_drv_clock.o(i.nrf_drv_clock_lfclk_is_running) refers to nrf_drv_clock.o(i.nrf_clock_lf_is_running) for nrf_clock_lf_is_running
    nrf_drv_clock.o(i.nrf_drv_clock_lfclk_release) refers to app_util_platform.o(i.app_util_critical_region_enter) for app_util_critical_region_enter
    nrf_drv_clock.o(i.nrf_drv_clock_lfclk_release) refers to nrf_drv_clock.o(i.lfclk_stop) for lfclk_stop
    nrf_drv_clock.o(i.nrf_drv_clock_lfclk_release) refers to app_util_platform.o(i.app_util_critical_region_exit) for app_util_critical_region_exit
    nrf_drv_clock.o(i.nrf_drv_clock_lfclk_release) refers to nrf_drv_clock.o(.bss) for m_clock_cb
    nrf_drv_clock.o(i.nrf_drv_clock_lfclk_request) refers to app_util_platform.o(i.app_util_critical_region_enter) for app_util_critical_region_enter
    nrf_drv_clock.o(i.nrf_drv_clock_lfclk_request) refers to app_util_platform.o(i.app_util_critical_region_exit) for app_util_critical_region_exit
    nrf_drv_clock.o(i.nrf_drv_clock_lfclk_request) refers to nrf_drv_clock.o(i.item_enqueue) for item_enqueue
    nrf_drv_clock.o(i.nrf_drv_clock_lfclk_request) refers to nrf_drv_clock.o(i.lfclk_start) for lfclk_start
    nrf_drv_clock.o(i.nrf_drv_clock_lfclk_request) refers to nrf_drv_clock.o(.bss) for m_clock_cb
    nrf_drv_clock.o(i.nrf_drv_clock_uninit) refers to nrf_drv_common.o(i.nrf_drv_common_clock_irq_disable) for nrf_drv_common_clock_irq_disable
    nrf_drv_clock.o(i.nrf_drv_clock_uninit) refers to nrf_drv_clock.o(i.nrf_clock_int_disable) for nrf_clock_int_disable
    nrf_drv_clock.o(i.nrf_drv_clock_uninit) refers to nrf_drv_clock.o(i.lfclk_stop) for lfclk_stop
    nrf_drv_clock.o(i.nrf_drv_clock_uninit) refers to nrf_drv_clock.o(i.hfclk_stop) for hfclk_stop
    nrf_drv_clock.o(i.nrf_drv_clock_uninit) refers to nrf_drv_clock.o(.bss) for m_clock_cb
    nrf_drv_clock.o(i.sd_state_evt_handler) refers to app_util_platform.o(i.app_util_critical_region_enter) for app_util_critical_region_enter
    nrf_drv_clock.o(i.sd_state_evt_handler) refers to nrf_drv_clock.o(i.nrf_drv_clock_init) for nrf_drv_clock_init
    nrf_drv_clock.o(i.sd_state_evt_handler) refers to app_util_platform.o(i.app_util_critical_region_exit) for app_util_critical_region_exit
    nrf_drv_clock.o(i.sd_state_evt_handler) refers to nrf_drv_common.o(i.nrf_drv_common_irq_enable) for nrf_drv_common_irq_enable
    nrf_drv_clock.o(i.sd_state_evt_handler) refers to nrf_drv_clock.o(i.nrf_drv_clock_lfclk_release) for nrf_drv_clock_lfclk_release
    nrf_drv_clock.o(i.sd_state_evt_handler) refers to nrf_drv_clock.o(.bss) for m_clock_cb
    nrf_drv_clock.o(i.soc_evt_handler) refers to nrf_drv_clock.o(i.clock_clk_started_notify) for clock_clk_started_notify
    nrf_drv_clock.o(sdh_soc_observers0) refers to nrf_drv_clock.o(i.soc_evt_handler) for soc_evt_handler
    nrf_drv_clock.o(sdh_state_observers0) refers to nrf_drv_clock.o(i.sd_state_evt_handler) for sd_state_evt_handler
    nrf_drv_gpiote.o(i.GPIOTE_IRQHandler) refers to nrf_drv_gpiote.o(i.nrf_gpiote_event_is_set) for nrf_gpiote_event_is_set
    nrf_drv_gpiote.o(i.GPIOTE_IRQHandler) refers to nrf_drv_gpiote.o(i.nrf_gpiote_event_clear) for nrf_gpiote_event_clear
    nrf_drv_gpiote.o(i.GPIOTE_IRQHandler) refers to nrf_drv_gpiote.o(i.nrf_gpio_ports_read) for nrf_gpio_ports_read
    nrf_drv_gpiote.o(i.GPIOTE_IRQHandler) refers to nrf_drv_gpiote.o(i.channel_handler_get) for channel_handler_get
    nrf_drv_gpiote.o(i.GPIOTE_IRQHandler) refers to nrf_drv_gpiote.o(i.nrf_bitmask_bit_is_set) for nrf_bitmask_bit_is_set
    nrf_drv_gpiote.o(i.GPIOTE_IRQHandler) refers to nrf_drv_gpiote.o(i.channel_port_get) for channel_port_get
    nrf_drv_gpiote.o(i.GPIOTE_IRQHandler) refers to nrf_drv_gpiote.o(i.nrf_gpio_cfg_sense_set) for nrf_gpio_cfg_sense_set
    nrf_drv_gpiote.o(i.GPIOTE_IRQHandler) refers to nrf_drv_gpiote.o(.bss) for m_cb
    nrf_drv_gpiote.o(i.channel_free) refers to nrf_drv_gpiote.o(.bss) for m_cb
    nrf_drv_gpiote.o(i.channel_handler_get) refers to nrf_drv_gpiote.o(.bss) for m_cb
    nrf_drv_gpiote.o(i.channel_port_alloc) refers to nrf_drv_gpiote.o(.bss) for m_cb
    nrf_drv_gpiote.o(i.channel_port_get) refers to nrf_drv_gpiote.o(.bss) for m_cb
    nrf_drv_gpiote.o(i.nrf_drv_gpiote_clr_task_addr_get) refers to nrf_drv_gpiote.o(i.channel_port_get) for channel_port_get
    nrf_drv_gpiote.o(i.nrf_drv_gpiote_clr_task_addr_get) refers to nrf_drv_gpiote.o(i.nrf_gpiote_task_addr_get) for nrf_gpiote_task_addr_get
    nrf_drv_gpiote.o(i.nrf_drv_gpiote_clr_task_trigger) refers to nrf_drv_gpiote.o(i.channel_port_get) for channel_port_get
    nrf_drv_gpiote.o(i.nrf_drv_gpiote_in_event_addr_get) refers to nrf_drv_gpiote.o(i.pin_in_use_by_te) for pin_in_use_by_te
    nrf_drv_gpiote.o(i.nrf_drv_gpiote_in_event_addr_get) refers to nrf_drv_gpiote.o(i.channel_port_get) for channel_port_get
    nrf_drv_gpiote.o(i.nrf_drv_gpiote_in_event_addr_get) refers to nrf_drv_gpiote.o(i.nrf_gpiote_event_addr_get) for nrf_gpiote_event_addr_get
    nrf_drv_gpiote.o(i.nrf_drv_gpiote_in_event_disable) refers to nrf_drv_gpiote.o(i.pin_in_use_by_port) for pin_in_use_by_port
    nrf_drv_gpiote.o(i.nrf_drv_gpiote_in_event_disable) refers to nrf_drv_gpiote.o(i.nrf_gpio_cfg_sense_set) for nrf_gpio_cfg_sense_set
    nrf_drv_gpiote.o(i.nrf_drv_gpiote_in_event_disable) refers to nrf_drv_gpiote.o(i.pin_in_use_by_te) for pin_in_use_by_te
    nrf_drv_gpiote.o(i.nrf_drv_gpiote_in_event_disable) refers to nrf_drv_gpiote.o(i.channel_port_get) for channel_port_get
    nrf_drv_gpiote.o(i.nrf_drv_gpiote_in_event_enable) refers to nrf_drv_gpiote.o(i.pin_in_use_by_port) for pin_in_use_by_port
    nrf_drv_gpiote.o(i.nrf_drv_gpiote_in_event_enable) refers to nrf_drv_gpiote.o(i.channel_port_get) for channel_port_get
    nrf_drv_gpiote.o(i.nrf_drv_gpiote_in_event_enable) refers to nrf_drv_gpiote.o(i.nrf_gpio_pin_read) for nrf_gpio_pin_read
    nrf_drv_gpiote.o(i.nrf_drv_gpiote_in_event_enable) refers to nrf_drv_gpiote.o(i.nrf_gpio_cfg_sense_set) for nrf_gpio_cfg_sense_set
    nrf_drv_gpiote.o(i.nrf_drv_gpiote_in_event_enable) refers to nrf_drv_gpiote.o(i.pin_in_use_by_te) for pin_in_use_by_te
    nrf_drv_gpiote.o(i.nrf_drv_gpiote_in_event_enable) refers to nrf_drv_gpiote.o(i.nrf_gpiote_event_clear) for nrf_gpiote_event_clear
    nrf_drv_gpiote.o(i.nrf_drv_gpiote_in_event_enable) refers to nrf_drv_gpiote.o(i.channel_handler_get) for channel_handler_get
    nrf_drv_gpiote.o(i.nrf_drv_gpiote_in_event_enable) refers to nrf_drv_gpiote.o(i.nrf_gpiote_int_enable) for nrf_gpiote_int_enable
    nrf_drv_gpiote.o(i.nrf_drv_gpiote_in_event_enable) refers to nrf_drv_gpiote.o(.bss) for m_cb
    nrf_drv_gpiote.o(i.nrf_drv_gpiote_in_init) refers to nrf_drv_gpiote.o(i.pin_in_use_by_gpiote) for pin_in_use_by_gpiote
    nrf_drv_gpiote.o(i.nrf_drv_gpiote_in_init) refers to nrf_drv_gpiote.o(i.channel_port_alloc) for channel_port_alloc
    nrf_drv_gpiote.o(i.nrf_drv_gpiote_in_init) refers to nrf_drv_gpiote.o(i.nrf_gpio_cfg) for nrf_gpio_cfg
    nrf_drv_gpiote.o(i.nrf_drv_gpiote_in_init) refers to nrf_drv_gpiote.o(.bss) for m_cb
    nrf_drv_gpiote.o(i.nrf_drv_gpiote_in_is_set) refers to nrf_drv_gpiote.o(i.nrf_gpio_pin_read) for nrf_gpio_pin_read
    nrf_drv_gpiote.o(i.nrf_drv_gpiote_in_uninit) refers to nrf_drv_gpiote.o(i.nrf_drv_gpiote_in_event_disable) for nrf_drv_gpiote_in_event_disable
    nrf_drv_gpiote.o(i.nrf_drv_gpiote_in_uninit) refers to nrf_drv_gpiote.o(i.pin_in_use_by_te) for pin_in_use_by_te
    nrf_drv_gpiote.o(i.nrf_drv_gpiote_in_uninit) refers to nrf_drv_gpiote.o(i.channel_port_get) for channel_port_get
    nrf_drv_gpiote.o(i.nrf_drv_gpiote_in_uninit) refers to nrf_drv_gpiote.o(i.nrf_gpiote_te_default) for nrf_gpiote_te_default
    nrf_drv_gpiote.o(i.nrf_drv_gpiote_in_uninit) refers to nrf_drv_gpiote.o(i.nrf_gpio_cfg_default) for nrf_gpio_cfg_default
    nrf_drv_gpiote.o(i.nrf_drv_gpiote_in_uninit) refers to nrf_drv_gpiote.o(i.channel_free) for channel_free
    nrf_drv_gpiote.o(i.nrf_drv_gpiote_in_uninit) refers to nrf_drv_gpiote.o(i.pin_in_use_clear) for pin_in_use_clear
    nrf_drv_gpiote.o(i.nrf_drv_gpiote_init) refers to nrf_drv_gpiote.o(i.pin_in_use_clear) for pin_in_use_clear
    nrf_drv_gpiote.o(i.nrf_drv_gpiote_init) refers to nrf_drv_gpiote.o(i.channel_free) for channel_free
    nrf_drv_gpiote.o(i.nrf_drv_gpiote_init) refers to nrf_drv_common.o(i.nrf_drv_common_irq_enable) for nrf_drv_common_irq_enable
    nrf_drv_gpiote.o(i.nrf_drv_gpiote_init) refers to nrf_drv_gpiote.o(i.nrf_gpiote_event_clear) for nrf_gpiote_event_clear
    nrf_drv_gpiote.o(i.nrf_drv_gpiote_init) refers to nrf_drv_gpiote.o(i.nrf_gpiote_int_enable) for nrf_gpiote_int_enable
    nrf_drv_gpiote.o(i.nrf_drv_gpiote_init) refers to nrf_drv_gpiote.o(.bss) for m_cb
    nrf_drv_gpiote.o(i.nrf_drv_gpiote_is_init) refers to nrf_drv_gpiote.o(.bss) for m_cb
    nrf_drv_gpiote.o(i.nrf_drv_gpiote_out_clear) refers to nrf_drv_gpiote.o(i.nrf_gpio_pin_clear) for nrf_gpio_pin_clear
    nrf_drv_gpiote.o(i.nrf_drv_gpiote_out_init) refers to nrf_drv_gpiote.o(i.channel_port_alloc) for channel_port_alloc
    nrf_drv_gpiote.o(i.nrf_drv_gpiote_out_init) refers to nrf_drv_gpiote.o(i.nrf_gpio_pin_set) for nrf_gpio_pin_set
    nrf_drv_gpiote.o(i.nrf_drv_gpiote_out_init) refers to nrf_drv_gpiote.o(i.nrf_gpio_pin_clear) for nrf_gpio_pin_clear
    nrf_drv_gpiote.o(i.nrf_drv_gpiote_out_init) refers to nrf_drv_gpiote.o(i.nrf_gpio_cfg) for nrf_gpio_cfg
    nrf_drv_gpiote.o(i.nrf_drv_gpiote_out_init) refers to nrf_drv_gpiote.o(.bss) for m_cb
    nrf_drv_gpiote.o(i.nrf_drv_gpiote_out_set) refers to nrf_drv_gpiote.o(i.nrf_gpio_pin_set) for nrf_gpio_pin_set
    nrf_drv_gpiote.o(i.nrf_drv_gpiote_out_task_addr_get) refers to nrf_drv_gpiote.o(i.channel_port_get) for channel_port_get
    nrf_drv_gpiote.o(i.nrf_drv_gpiote_out_task_addr_get) refers to nrf_drv_gpiote.o(i.nrf_gpiote_task_addr_get) for nrf_gpiote_task_addr_get
    nrf_drv_gpiote.o(i.nrf_drv_gpiote_out_task_disable) refers to nrf_drv_gpiote.o(.bss) for m_cb
    nrf_drv_gpiote.o(i.nrf_drv_gpiote_out_task_enable) refers to nrf_drv_gpiote.o(.bss) for m_cb
    nrf_drv_gpiote.o(i.nrf_drv_gpiote_out_task_force) refers to nrf_drv_gpiote.o(.bss) for m_cb
    nrf_drv_gpiote.o(i.nrf_drv_gpiote_out_task_trigger) refers to nrf_drv_gpiote.o(i.channel_port_get) for channel_port_get
    nrf_drv_gpiote.o(i.nrf_drv_gpiote_out_uninit) refers to nrf_drv_gpiote.o(i.pin_in_use_by_te) for pin_in_use_by_te
    nrf_drv_gpiote.o(i.nrf_drv_gpiote_out_uninit) refers to nrf_drv_gpiote.o(i.channel_port_get) for channel_port_get
    nrf_drv_gpiote.o(i.nrf_drv_gpiote_out_uninit) refers to nrf_drv_gpiote.o(i.channel_free) for channel_free
    nrf_drv_gpiote.o(i.nrf_drv_gpiote_out_uninit) refers to nrf_drv_gpiote.o(i.nrf_gpiote_te_default) for nrf_gpiote_te_default
    nrf_drv_gpiote.o(i.nrf_drv_gpiote_out_uninit) refers to nrf_drv_gpiote.o(i.pin_in_use_clear) for pin_in_use_clear
    nrf_drv_gpiote.o(i.nrf_drv_gpiote_out_uninit) refers to nrf_drv_gpiote.o(i.nrf_gpio_cfg_default) for nrf_gpio_cfg_default
    nrf_drv_gpiote.o(i.nrf_drv_gpiote_set_task_addr_get) refers to nrf_drv_gpiote.o(i.channel_port_get) for channel_port_get
    nrf_drv_gpiote.o(i.nrf_drv_gpiote_set_task_addr_get) refers to nrf_drv_gpiote.o(i.nrf_gpiote_task_addr_get) for nrf_gpiote_task_addr_get
    nrf_drv_gpiote.o(i.nrf_drv_gpiote_set_task_trigger) refers to nrf_drv_gpiote.o(i.channel_port_get) for channel_port_get
    nrf_drv_gpiote.o(i.nrf_drv_gpiote_uninit) refers to nrf_drv_gpiote.o(i.nrf_drv_gpiote_out_uninit) for nrf_drv_gpiote_out_uninit
    nrf_drv_gpiote.o(i.nrf_drv_gpiote_uninit) refers to nrf_drv_gpiote.o(i.pin_in_use_by_gpiote) for pin_in_use_by_gpiote
    nrf_drv_gpiote.o(i.nrf_drv_gpiote_uninit) refers to nrf_drv_gpiote.o(i.nrf_drv_gpiote_in_uninit) for nrf_drv_gpiote_in_uninit
    nrf_drv_gpiote.o(i.nrf_drv_gpiote_uninit) refers to nrf_drv_gpiote.o(.bss) for m_cb
    nrf_drv_gpiote.o(i.nrf_gpio_cfg_default) refers to nrf_drv_gpiote.o(i.nrf_gpio_cfg) for nrf_gpio_cfg
    nrf_drv_gpiote.o(i.nrf_gpio_ports_read) refers to nrf_drv_gpiote.o(.constdata) for .constdata
    nrf_drv_gpiote.o(i.nrf_gpiote_event_clear) refers to nrf_drv_gpiote.o(i.nrf_gpiote_event_addr_get) for nrf_gpiote_event_addr_get
    nrf_drv_gpiote.o(i.nrf_gpiote_event_is_set) refers to nrf_drv_gpiote.o(i.nrf_gpiote_event_addr_get) for nrf_gpiote_event_addr_get
    nrf_drv_gpiote.o(i.pin_in_use_by_gpiote) refers to nrf_drv_gpiote.o(.bss) for m_cb
    nrf_drv_gpiote.o(i.pin_in_use_by_port) refers to nrf_drv_gpiote.o(.bss) for m_cb
    nrf_drv_gpiote.o(i.pin_in_use_by_te) refers to nrf_drv_gpiote.o(.bss) for m_cb
    nrf_drv_gpiote.o(i.pin_in_use_clear) refers to nrf_drv_gpiote.o(.bss) for m_cb
    nrf_drv_uart.o(i.UARTE0_UART0_IRQHandler) refers to nrf_drv_uart.o(i.uarte_irq_handler) for uarte_irq_handler
    nrf_drv_uart.o(i.UARTE0_UART0_IRQHandler) refers to nrf_drv_uart.o(i.uart_irq_handler) for uart_irq_handler
    nrf_drv_uart.o(i.UARTE0_UART0_IRQHandler) refers to nrf_drv_uart.o(.bss) for m_cb
    nrf_drv_uart.o(i.apply_config) refers to nrf_drv_uart.o(i.nrf_gpio_pin_set) for nrf_gpio_pin_set
    nrf_drv_uart.o(i.apply_config) refers to nrf_drv_uart.o(i.nrf_gpio_cfg_output) for nrf_gpio_cfg_output
    nrf_drv_uart.o(i.apply_config) refers to nrf_drv_uart.o(i.nrf_gpio_cfg_input) for nrf_gpio_cfg_input
    nrf_drv_uart.o(i.apply_config) refers to nrf_drv_uart.o(i.nrf_uarte_txrx_pins_set) for nrf_uarte_txrx_pins_set
    nrf_drv_uart.o(i.apply_config) refers to nrf_drv_uart.o(i.nrf_uarte_hwfc_pins_set) for nrf_uarte_hwfc_pins_set
    nrf_drv_uart.o(i.apply_config) refers to nrf_drv_uart.o(i.nrf_uart_txrx_pins_set) for nrf_uart_txrx_pins_set
    nrf_drv_uart.o(i.apply_config) refers to nrf_drv_uart.o(i.nrf_uart_hwfc_pins_set) for nrf_uart_hwfc_pins_set
    nrf_drv_uart.o(i.apply_config) refers to nrf_drv_uart.o(.bss) for m_cb
    nrf_drv_uart.o(i.interrupts_enable) refers to nrf_drv_uart.o(i.nrf_uarte_event_clear) for nrf_uarte_event_clear
    nrf_drv_uart.o(i.interrupts_enable) refers to nrf_drv_uart.o(i.nrf_uarte_int_enable) for nrf_uarte_int_enable
    nrf_drv_uart.o(i.interrupts_enable) refers to nrf_drv_uart.o(i.nrf_drv_get_IRQn) for nrf_drv_get_IRQn
    nrf_drv_uart.o(i.interrupts_enable) refers to nrf_drv_common.o(i.nrf_drv_common_irq_enable) for nrf_drv_common_irq_enable
    nrf_drv_uart.o(i.interrupts_enable) refers to nrf_drv_uart.o(i.nrf_uart_event_clear) for nrf_uart_event_clear
    nrf_drv_uart.o(i.interrupts_enable) refers to nrf_drv_uart.o(i.nrf_uart_int_enable) for nrf_uart_int_enable
    nrf_drv_uart.o(i.interrupts_enable) refers to nrf_drv_uart.o(.bss) for m_cb
    nrf_drv_uart.o(i.nrf_drv_uart_errorsrc_get) refers to nrf_drv_uart.o(i.nrf_uarte_event_clear) for nrf_uarte_event_clear
    nrf_drv_uart.o(i.nrf_drv_uart_errorsrc_get) refers to nrf_drv_uart.o(i.nrf_uarte_errorsrc_get_and_clear) for nrf_uarte_errorsrc_get_and_clear
    nrf_drv_uart.o(i.nrf_drv_uart_errorsrc_get) refers to nrf_drv_uart.o(i.nrf_uart_event_clear) for nrf_uart_event_clear
    nrf_drv_uart.o(i.nrf_drv_uart_errorsrc_get) refers to nrf_drv_uart.o(i.nrf_uart_errorsrc_get_and_clear) for nrf_uart_errorsrc_get_and_clear
    nrf_drv_uart.o(i.nrf_drv_uart_errorsrc_get) refers to nrf_drv_uart.o(.bss) for m_cb
    nrf_drv_uart.o(i.nrf_drv_uart_init) refers to nrf_drv_uart.o(i.apply_config) for apply_config
    nrf_drv_uart.o(i.nrf_drv_uart_init) refers to nrf_drv_uart.o(i.interrupts_enable) for interrupts_enable
    nrf_drv_uart.o(i.nrf_drv_uart_init) refers to nrf_drv_uart.o(.bss) for m_cb
    nrf_drv_uart.o(i.nrf_drv_uart_rx) refers to nrf_drv_uart.o(i.nrf_drv_is_in_RAM) for nrf_drv_is_in_RAM
    nrf_drv_uart.o(i.nrf_drv_uart_rx) refers to nrf_drv_uart.o(i.nrf_uarte_int_disable) for nrf_uarte_int_disable
    nrf_drv_uart.o(i.nrf_drv_uart_rx) refers to nrf_drv_uart.o(i.nrf_uart_int_disable) for nrf_uart_int_disable
    nrf_drv_uart.o(i.nrf_drv_uart_rx) refers to nrf_drv_uart.o(i.nrf_uarte_int_enable) for nrf_uarte_int_enable
    nrf_drv_uart.o(i.nrf_drv_uart_rx) refers to nrf_drv_uart.o(i.nrf_uart_int_enable) for nrf_uart_int_enable
    nrf_drv_uart.o(i.nrf_drv_uart_rx) refers to nrf_drv_uart.o(i.nrf_drv_uart_rx_for_uarte) for nrf_drv_uart_rx_for_uarte
    nrf_drv_uart.o(i.nrf_drv_uart_rx) refers to nrf_drv_uart.o(i.nrf_drv_uart_rx_for_uart) for nrf_drv_uart_rx_for_uart
    nrf_drv_uart.o(i.nrf_drv_uart_rx) refers to nrf_drv_uart.o(.bss) for m_cb
    nrf_drv_uart.o(i.nrf_drv_uart_rx_abort) refers to nrf_drv_uart.o(i.nrf_uarte_task_trigger) for nrf_uarte_task_trigger
    nrf_drv_uart.o(i.nrf_drv_uart_rx_abort) refers to nrf_drv_uart.o(i.nrf_uart_int_disable) for nrf_uart_int_disable
    nrf_drv_uart.o(i.nrf_drv_uart_rx_abort) refers to nrf_drv_uart.o(i.nrf_uart_task_trigger) for nrf_uart_task_trigger
    nrf_drv_uart.o(i.nrf_drv_uart_rx_abort) refers to nrf_drv_uart.o(.bss) for m_cb
    nrf_drv_uart.o(i.nrf_drv_uart_rx_disable) refers to nrf_drv_uart.o(i.nrf_uart_task_trigger) for nrf_uart_task_trigger
    nrf_drv_uart.o(i.nrf_drv_uart_rx_disable) refers to nrf_drv_uart.o(.bss) for m_cb
    nrf_drv_uart.o(i.nrf_drv_uart_rx_enable) refers to nrf_drv_uart.o(i.rx_enable) for rx_enable
    nrf_drv_uart.o(i.nrf_drv_uart_rx_enable) refers to nrf_drv_uart.o(.bss) for m_cb
    nrf_drv_uart.o(i.nrf_drv_uart_rx_for_uart) refers to nrf_drv_uart.o(i.rx_enable) for rx_enable
    nrf_drv_uart.o(i.nrf_drv_uart_rx_for_uart) refers to nrf_drv_uart.o(i.nrf_uart_event_clear) for nrf_uart_event_clear
    nrf_drv_uart.o(i.nrf_drv_uart_rx_for_uart) refers to nrf_drv_uart.o(i.nrf_uart_event_check) for nrf_uart_event_check
    nrf_drv_uart.o(i.nrf_drv_uart_rx_for_uart) refers to nrf_drv_uart.o(i.rx_byte) for rx_byte
    nrf_drv_uart.o(i.nrf_drv_uart_rx_for_uart) refers to nrf_drv_uart.o(i.nrf_uart_task_trigger) for nrf_uart_task_trigger
    nrf_drv_uart.o(i.nrf_drv_uart_rx_for_uart) refers to nrf_drv_uart.o(i.nrf_uart_int_enable) for nrf_uart_int_enable
    nrf_drv_uart.o(i.nrf_drv_uart_rx_for_uart) refers to nrf_drv_uart.o(.bss) for m_cb
    nrf_drv_uart.o(i.nrf_drv_uart_rx_for_uarte) refers to nrf_drv_uart.o(i.nrf_uarte_event_clear) for nrf_uarte_event_clear
    nrf_drv_uart.o(i.nrf_drv_uart_rx_for_uarte) refers to nrf_drv_uart.o(i.nrf_uarte_task_trigger) for nrf_uarte_task_trigger
    nrf_drv_uart.o(i.nrf_drv_uart_rx_for_uarte) refers to nrf_drv_uart.o(i.nrf_uarte_event_check) for nrf_uarte_event_check
    nrf_drv_uart.o(i.nrf_drv_uart_rx_for_uarte) refers to nrf_drv_uart.o(i.nrf_uarte_int_enable) for nrf_uarte_int_enable
    nrf_drv_uart.o(i.nrf_drv_uart_rx_for_uarte) refers to nrf_drv_uart.o(.bss) for m_cb
    nrf_drv_uart.o(i.nrf_drv_uart_rx_ready) refers to nrf_drv_uart.o(i.nrf_uarte_event_check) for nrf_uarte_event_check
    nrf_drv_uart.o(i.nrf_drv_uart_rx_ready) refers to nrf_drv_uart.o(i.nrf_uart_event_check) for nrf_uart_event_check
    nrf_drv_uart.o(i.nrf_drv_uart_rx_ready) refers to nrf_drv_uart.o(.bss) for m_cb
    nrf_drv_uart.o(i.nrf_drv_uart_tx) refers to nrf_drv_uart.o(i.nrf_drv_is_in_RAM) for nrf_drv_is_in_RAM
    nrf_drv_uart.o(i.nrf_drv_uart_tx) refers to nrf_drv_uart.o(i.nrf_drv_uart_tx_in_progress) for nrf_drv_uart_tx_in_progress
    nrf_drv_uart.o(i.nrf_drv_uart_tx) refers to nrf_drv_uart.o(i.nrf_drv_uart_tx_for_uarte) for nrf_drv_uart_tx_for_uarte
    nrf_drv_uart.o(i.nrf_drv_uart_tx) refers to nrf_drv_uart.o(i.nrf_drv_uart_tx_for_uart) for nrf_drv_uart_tx_for_uart
    nrf_drv_uart.o(i.nrf_drv_uart_tx) refers to nrf_drv_uart.o(.bss) for m_cb
    nrf_drv_uart.o(i.nrf_drv_uart_tx_abort) refers to nrf_drv_uart.o(i.nrf_uarte_event_clear) for nrf_uarte_event_clear
    nrf_drv_uart.o(i.nrf_drv_uart_tx_abort) refers to nrf_drv_uart.o(i.nrf_uarte_task_trigger) for nrf_uarte_task_trigger
    nrf_drv_uart.o(i.nrf_drv_uart_tx_abort) refers to nrf_drv_uart.o(i.nrf_uarte_event_check) for nrf_uarte_event_check
    nrf_drv_uart.o(i.nrf_drv_uart_tx_abort) refers to nrf_drv_uart.o(i.nrf_uart_task_trigger) for nrf_uart_task_trigger
    nrf_drv_uart.o(i.nrf_drv_uart_tx_abort) refers to nrf_drv_uart.o(i.tx_done_event) for tx_done_event
    nrf_drv_uart.o(i.nrf_drv_uart_tx_abort) refers to nrf_drv_uart.o(.bss) for m_cb
    nrf_drv_uart.o(i.nrf_drv_uart_tx_for_uart) refers to nrf_drv_uart.o(i.nrf_uart_event_clear) for nrf_uart_event_clear
    nrf_drv_uart.o(i.nrf_drv_uart_tx_for_uart) refers to nrf_drv_uart.o(i.nrf_uart_task_trigger) for nrf_uart_task_trigger
    nrf_drv_uart.o(i.nrf_drv_uart_tx_for_uart) refers to nrf_drv_uart.o(i.tx_byte) for tx_byte
    nrf_drv_uart.o(i.nrf_drv_uart_tx_for_uart) refers to nrf_drv_uart.o(i.nrf_uart_event_check) for nrf_uart_event_check
    nrf_drv_uart.o(i.nrf_drv_uart_tx_for_uart) refers to nrf_drv_uart.o(.bss) for m_cb
    nrf_drv_uart.o(i.nrf_drv_uart_tx_for_uarte) refers to nrf_drv_uart.o(i.nrf_uarte_event_clear) for nrf_uarte_event_clear
    nrf_drv_uart.o(i.nrf_drv_uart_tx_for_uarte) refers to nrf_drv_uart.o(i.nrf_uarte_task_trigger) for nrf_uarte_task_trigger
    nrf_drv_uart.o(i.nrf_drv_uart_tx_for_uarte) refers to nrf_drv_uart.o(i.nrf_uarte_event_check) for nrf_uarte_event_check
    nrf_drv_uart.o(i.nrf_drv_uart_tx_for_uarte) refers to nrf_drv_uart.o(.bss) for m_cb
    nrf_drv_uart.o(i.nrf_drv_uart_tx_in_progress) refers to nrf_drv_uart.o(.bss) for m_cb
    nrf_drv_uart.o(i.nrf_drv_uart_uninit) refers to nrf_drv_uart.o(i.nrf_uarte_int_disable) for nrf_uarte_int_disable
    nrf_drv_uart.o(i.nrf_drv_uart_uninit) refers to nrf_drv_uart.o(i.nrf_drv_get_IRQn) for nrf_drv_get_IRQn
    nrf_drv_uart.o(i.nrf_drv_uart_uninit) refers to nrf_drv_uart.o(i.nrf_drv_common_irq_disable) for nrf_drv_common_irq_disable
    nrf_drv_uart.o(i.nrf_drv_uart_uninit) refers to nrf_drv_uart.o(i.nrf_uart_int_disable) for nrf_uart_int_disable
    nrf_drv_uart.o(i.nrf_drv_uart_uninit) refers to nrf_drv_uart.o(i.pins_to_default) for pins_to_default
    nrf_drv_uart.o(i.nrf_drv_uart_uninit) refers to nrf_drv_uart.o(.bss) for m_cb
    nrf_drv_uart.o(i.nrf_gpio_cfg_default) refers to nrf_drv_uart.o(i.nrf_gpio_cfg) for nrf_gpio_cfg
    nrf_drv_uart.o(i.nrf_gpio_cfg_input) refers to nrf_drv_uart.o(i.nrf_gpio_cfg) for nrf_gpio_cfg
    nrf_drv_uart.o(i.nrf_gpio_cfg_output) refers to nrf_drv_uart.o(i.nrf_gpio_cfg) for nrf_gpio_cfg
    nrf_drv_uart.o(i.pins_to_default) refers to nrf_drv_uart.o(i.nrf_uarte_txrx_pins_set) for nrf_uarte_txrx_pins_set
    nrf_drv_uart.o(i.pins_to_default) refers to nrf_drv_uart.o(i.nrf_uarte_hwfc_pins_set) for nrf_uarte_hwfc_pins_set
    nrf_drv_uart.o(i.pins_to_default) refers to nrf_drv_uart.o(i.nrf_uart_txrx_pins_set) for nrf_uart_txrx_pins_set
    nrf_drv_uart.o(i.pins_to_default) refers to nrf_drv_uart.o(i.nrf_uart_hwfc_pins_set) for nrf_uart_hwfc_pins_set
    nrf_drv_uart.o(i.pins_to_default) refers to nrf_drv_uart.o(i.nrf_gpio_cfg_default) for nrf_gpio_cfg_default
    nrf_drv_uart.o(i.pins_to_default) refers to nrf_drv_uart.o(.bss) for m_cb
    nrf_drv_uart.o(i.rx_byte) refers to nrf_drv_uart.o(i.nrf_uart_event_clear) for nrf_uart_event_clear
    nrf_drv_uart.o(i.rx_enable) refers to nrf_drv_uart.o(i.nrf_uart_event_clear) for nrf_uart_event_clear
    nrf_drv_uart.o(i.rx_enable) refers to nrf_drv_uart.o(i.nrf_uart_task_trigger) for nrf_uart_task_trigger
    nrf_drv_uart.o(i.tx_byte) refers to nrf_drv_uart.o(i.nrf_uart_event_clear) for nrf_uart_event_clear
    nrf_drv_uart.o(i.uart_irq_handler) refers to nrf_drv_uart.o(i.nrf_uart_int_enable_check) for nrf_uart_int_enable_check
    nrf_drv_uart.o(i.uart_irq_handler) refers to nrf_drv_uart.o(i.nrf_uart_event_check) for nrf_uart_event_check
    nrf_drv_uart.o(i.uart_irq_handler) refers to nrf_drv_uart.o(i.nrf_uart_event_clear) for nrf_uart_event_clear
    nrf_drv_uart.o(i.uart_irq_handler) refers to nrf_drv_uart.o(i.nrf_uart_int_disable) for nrf_uart_int_disable
    nrf_drv_uart.o(i.uart_irq_handler) refers to nrf_drv_uart.o(i.nrf_uart_task_trigger) for nrf_uart_task_trigger
    nrf_drv_uart.o(i.uart_irq_handler) refers to nrf_drv_uart.o(i.nrf_uart_errorsrc_get_and_clear) for nrf_uart_errorsrc_get_and_clear
    nrf_drv_uart.o(i.uart_irq_handler) refers to nrf_drv_uart.o(i.rx_byte) for rx_byte
    nrf_drv_uart.o(i.uart_irq_handler) refers to nrf_drv_uart.o(i.rx_done_event) for rx_done_event
    nrf_drv_uart.o(i.uart_irq_handler) refers to nrf_drv_uart.o(i.tx_byte) for tx_byte
    nrf_drv_uart.o(i.uart_irq_handler) refers to nrf_drv_uart.o(i.tx_done_event) for tx_done_event
    nrf_drv_uart.o(i.uarte_irq_handler) refers to nrf_drv_uart.o(i.nrf_uarte_event_check) for nrf_uarte_event_check
    nrf_drv_uart.o(i.uarte_irq_handler) refers to nrf_drv_uart.o(i.nrf_uarte_event_clear) for nrf_uarte_event_clear
    nrf_drv_uart.o(i.uarte_irq_handler) refers to nrf_drv_uart.o(i.nrf_uarte_errorsrc_get_and_clear) for nrf_uarte_errorsrc_get_and_clear
    nrf_drv_uart.o(i.uarte_irq_handler) refers to nrf_drv_uart.o(i.nrf_uarte_rx_amount_get) for nrf_uarte_rx_amount_get
    nrf_drv_uart.o(i.uarte_irq_handler) refers to nrf_drv_uart.o(i.rx_done_event) for rx_done_event
    nrf_drv_uart.o(i.uarte_irq_handler) refers to nrf_drv_uart.o(i.tx_done_event) for tx_done_event
    app_button.o(i.app_button_disable) refers to nrf_drv_gpiote.o(i.nrf_drv_gpiote_in_event_disable) for nrf_drv_gpiote_in_event_disable
    app_button.o(i.app_button_disable) refers to app_timer.o(i.app_timer_stop) for app_timer_stop
    app_button.o(i.app_button_disable) refers to app_button.o(.data) for mp_buttons
    app_button.o(i.app_button_disable) refers to app_button.o(.constdata) for m_detection_delay_timer_id
    app_button.o(i.app_button_enable) refers to nrf_drv_gpiote.o(i.nrf_drv_gpiote_in_event_enable) for nrf_drv_gpiote_in_event_enable
    app_button.o(i.app_button_enable) refers to app_button.o(.data) for mp_buttons
    app_button.o(i.app_button_init) refers to nrf_drv_gpiote.o(i.nrf_drv_gpiote_is_init) for nrf_drv_gpiote_is_init
    app_button.o(i.app_button_init) refers to nrf_drv_gpiote.o(i.nrf_drv_gpiote_init) for nrf_drv_gpiote_init
    app_button.o(i.app_button_init) refers to nrf_drv_gpiote.o(i.nrf_drv_gpiote_in_init) for nrf_drv_gpiote_in_init
    app_button.o(i.app_button_init) refers to app_timer.o(i.app_timer_create) for app_timer_create
    app_button.o(i.app_button_init) refers to app_button.o(.data) for mp_buttons
    app_button.o(i.app_button_init) refers to app_button.o(.constdata) for .constdata
    app_button.o(i.app_button_init) refers to app_button.o(i.gpiote_event_handler) for gpiote_event_handler
    app_button.o(i.app_button_init) refers to app_button.o(i.detection_delay_timeout_handler) for detection_delay_timeout_handler
    app_button.o(i.app_button_is_pushed) refers to nrf_drv_gpiote.o(i.nrf_drv_gpiote_in_is_set) for nrf_drv_gpiote_in_is_set
    app_button.o(i.app_button_is_pushed) refers to app_button.o(.data) for mp_buttons
    app_button.o(i.detection_delay_timeout_handler) refers to nrf_drv_gpiote.o(i.nrf_drv_gpiote_in_is_set) for nrf_drv_gpiote_in_is_set
    app_button.o(i.detection_delay_timeout_handler) refers to app_button.o(.data) for mp_buttons
    app_button.o(i.gpiote_event_handler) refers to app_timer.o(i.app_timer_stop) for app_timer_stop
    app_button.o(i.gpiote_event_handler) refers to nrf_drv_gpiote.o(i.nrf_drv_gpiote_in_is_set) for nrf_drv_gpiote_in_is_set
    app_button.o(i.gpiote_event_handler) refers to app_timer.o(i.app_timer_start) for app_timer_start
    app_button.o(i.gpiote_event_handler) refers to app_button.o(.constdata) for m_detection_delay_timer_id
    app_button.o(i.gpiote_event_handler) refers to app_button.o(.data) for m_pin_transition
    app_button.o(.constdata) refers to app_button.o(.bss) for m_detection_delay_timer_id_data
    app_error.o(i.app_error_handler) refers to app_error_weak.o(i.app_error_fault_handler) for app_error_fault_handler
    app_error.o(i.app_error_handler_bare) refers to app_error_weak.o(i.app_error_fault_handler) for app_error_fault_handler
    app_error.o(i.app_error_save_and_stop) refers to app_error.o(.bss) for m_error_data
    app_scheduler.o(i.app_sched_event_put) refers to app_util_platform.o(i.app_util_critical_region_enter) for app_util_critical_region_enter
    app_scheduler.o(i.app_sched_event_put) refers to app_scheduler.o(i.next_index) for next_index
    app_scheduler.o(i.app_sched_event_put) refers to app_util_platform.o(i.app_util_critical_region_exit) for app_util_critical_region_exit
    app_scheduler.o(i.app_sched_event_put) refers to memcpya.o(.text) for __aeabi_memcpy
    app_scheduler.o(i.app_sched_event_put) refers to app_scheduler.o(.data) for m_queue_event_size
    app_scheduler.o(i.app_sched_execute) refers to app_scheduler.o(i.next_index) for next_index
    app_scheduler.o(i.app_sched_execute) refers to app_scheduler.o(.data) for m_queue_start_index
    app_scheduler.o(i.app_sched_init) refers to app_scheduler.o(.data) for m_queue_event_headers
    app_scheduler.o(i.app_sched_queue_space_get) refers to app_scheduler.o(.data) for m_queue_start_index
    app_scheduler.o(i.next_index) refers to app_scheduler.o(.data) for m_queue_size
    app_timer.o(i.RTC1_IRQHandler) refers to app_timer.o(i.timer_timeouts_check) for timer_timeouts_check
    app_timer.o(i.SWI0_EGU0_IRQHandler) refers to app_timer.o(i.timer_list_handler) for timer_list_handler
    app_timer.o(i.app_timer_cnt_diff_compute) refers to app_timer.o(i.ticks_diff_get) for ticks_diff_get
    app_timer.o(i.app_timer_cnt_get) refers to app_timer.o(i.rtc1_counter_get) for rtc1_counter_get
    app_timer.o(i.app_timer_create) refers to app_timer.o(.bss) for m_op_queue
    app_timer.o(i.app_timer_init) refers to app_timer.o(i.rtc1_stop) for rtc1_stop
    app_timer.o(i.app_timer_init) refers to app_timer.o(i.NVIC_ClearPendingIRQ) for NVIC_ClearPendingIRQ
    app_timer.o(i.app_timer_init) refers to app_timer.o(i.NVIC_SetPriority) for NVIC_SetPriority
    app_timer.o(i.app_timer_init) refers to app_timer.o(i.NVIC_EnableIRQ) for NVIC_EnableIRQ
    app_timer.o(i.app_timer_init) refers to app_timer.o(i.rtc1_init) for rtc1_init
    app_timer.o(i.app_timer_init) refers to app_timer.o(i.rtc1_counter_get) for rtc1_counter_get
    app_timer.o(i.app_timer_init) refers to app_timer.o(.bss) for m_op_queue
    app_timer.o(i.app_timer_init) refers to app_timer.o(.data) for mp_timer_id_head
    app_timer.o(i.app_timer_start) refers to app_timer.o(i.timer_start_op_schedule) for timer_start_op_schedule
    app_timer.o(i.app_timer_start) refers to app_timer.o(.bss) for m_op_queue
    app_timer.o(i.app_timer_stop) refers to app_timer.o(i.timer_stop_op_schedule) for timer_stop_op_schedule
    app_timer.o(i.app_timer_stop) refers to app_timer.o(.bss) for m_op_queue
    app_timer.o(i.app_timer_stop_all) refers to app_timer.o(i.timer_stop_op_schedule) for timer_stop_op_schedule
    app_timer.o(i.app_timer_stop_all) refers to app_timer.o(.bss) for m_op_queue
    app_timer.o(i.compare_reg_update) refers to app_timer.o(i.rtc1_counter_get) for rtc1_counter_get
    app_timer.o(i.compare_reg_update) refers to app_timer.o(i.ticks_diff_get) for ticks_diff_get
    app_timer.o(i.compare_reg_update) refers to app_timer.o(i.rtc1_start) for rtc1_start
    app_timer.o(i.compare_reg_update) refers to app_timer.o(i.rtc1_compare0_set) for rtc1_compare0_set
    app_timer.o(i.compare_reg_update) refers to app_timer.o(i.nrf_delay_us) for nrf_delay_us
    app_timer.o(i.compare_reg_update) refers to app_timer.o(i.timer_timeouts_check_sched) for timer_timeouts_check_sched
    app_timer.o(i.compare_reg_update) refers to app_timer.o(i.rtc1_stop) for rtc1_stop
    app_timer.o(i.compare_reg_update) refers to app_timer.o(.data) for mp_timer_id_head
    app_timer.o(i.elapsed_ticks_acquire) refers to app_timer.o(.data) for m_ticks_elapsed_q_read_ind
    app_timer.o(i.expired_timers_handler) refers to app_timer.o(.data) for mp_timer_id_head
    app_timer.o(i.list_insertions_handler) refers to app_timer.o(i.timer_list_remove) for timer_list_remove
    app_timer.o(i.list_insertions_handler) refers to app_timer.o(i.ticks_diff_get) for ticks_diff_get
    app_timer.o(i.list_insertions_handler) refers to app_timer.o(i.timer_list_insert) for timer_list_insert
    app_timer.o(i.list_insertions_handler) refers to app_timer.o(.data) for mp_timer_id_head
    app_timer.o(i.list_insertions_handler) refers to app_timer.o(.bss) for m_op_queue
    app_timer.o(i.nrf_delay_us) refers to system_nrf52.o(.data) for SystemCoreClock
    app_timer.o(i.rtc1_init) refers to app_timer.o(i.NVIC_SetPriority) for NVIC_SetPriority
    app_timer.o(i.rtc1_start) refers to app_timer.o(i.NVIC_ClearPendingIRQ) for NVIC_ClearPendingIRQ
    app_timer.o(i.rtc1_start) refers to app_timer.o(i.NVIC_EnableIRQ) for NVIC_EnableIRQ
    app_timer.o(i.rtc1_start) refers to app_timer.o(i.nrf_delay_us) for nrf_delay_us
    app_timer.o(i.rtc1_start) refers to app_timer.o(.data) for m_rtc1_running
    app_timer.o(i.rtc1_stop) refers to app_timer.o(i.nrf_delay_us) for nrf_delay_us
    app_timer.o(i.rtc1_stop) refers to app_timer.o(.data) for m_ticks_latest
    app_timer.o(i.timer_list_handler) refers to app_timer.o(i.elapsed_ticks_acquire) for elapsed_ticks_acquire
    app_timer.o(i.timer_list_handler) refers to app_timer.o(i.expired_timers_handler) for expired_timers_handler
    app_timer.o(i.timer_list_handler) refers to app_timer.o(i.list_insertions_handler) for list_insertions_handler
    app_timer.o(i.timer_list_handler) refers to app_timer.o(i.compare_reg_update) for compare_reg_update
    app_timer.o(i.timer_list_handler) refers to app_timer.o(.data) for m_ticks_latest
    app_timer.o(i.timer_list_handler_sched) refers to app_timer.o(i.NVIC_SetPendingIRQ) for NVIC_SetPendingIRQ
    app_timer.o(i.timer_list_insert) refers to app_timer.o(.data) for mp_timer_id_head
    app_timer.o(i.timer_list_remove) refers to app_timer.o(i.nrf_delay_us) for nrf_delay_us
    app_timer.o(i.timer_list_remove) refers to app_timer.o(.data) for mp_timer_id_head
    app_timer.o(i.timer_start_op_schedule) refers to app_util_platform.o(i.app_util_critical_region_enter) for app_util_critical_region_enter
    app_timer.o(i.timer_start_op_schedule) refers to app_timer.o(i.user_op_alloc) for user_op_alloc
    app_timer.o(i.timer_start_op_schedule) refers to app_timer.o(i.rtc1_counter_get) for rtc1_counter_get
    app_timer.o(i.timer_start_op_schedule) refers to app_timer.o(i.user_op_enque) for user_op_enque
    app_timer.o(i.timer_start_op_schedule) refers to app_util_platform.o(i.app_util_critical_region_exit) for app_util_critical_region_exit
    app_timer.o(i.timer_start_op_schedule) refers to app_timer.o(i.timer_list_handler_sched) for timer_list_handler_sched
    app_timer.o(i.timer_stop_op_schedule) refers to app_util_platform.o(i.app_util_critical_region_enter) for app_util_critical_region_enter
    app_timer.o(i.timer_stop_op_schedule) refers to app_timer.o(i.user_op_alloc) for user_op_alloc
    app_timer.o(i.timer_stop_op_schedule) refers to app_timer.o(i.user_op_enque) for user_op_enque
    app_timer.o(i.timer_stop_op_schedule) refers to app_util_platform.o(i.app_util_critical_region_exit) for app_util_critical_region_exit
    app_timer.o(i.timer_stop_op_schedule) refers to app_timer.o(i.timer_list_handler_sched) for timer_list_handler_sched
    app_timer.o(i.timer_timeouts_check) refers to app_timer.o(i.rtc1_counter_get) for rtc1_counter_get
    app_timer.o(i.timer_timeouts_check) refers to app_timer.o(i.ticks_diff_get) for ticks_diff_get
    app_timer.o(i.timer_timeouts_check) refers to app_timer.o(i.timeout_handler_exec) for timeout_handler_exec
    app_timer.o(i.timer_timeouts_check) refers to app_timer.o(i.timer_list_handler_sched) for timer_list_handler_sched
    app_timer.o(i.timer_timeouts_check) refers to app_timer.o(.data) for mp_timer_id_head
    app_timer.o(i.timer_timeouts_check_sched) refers to app_timer.o(i.NVIC_SetPendingIRQ) for NVIC_SetPendingIRQ
    app_timer.o(i.user_op_alloc) refers to app_timer.o(.bss) for m_op_queue
    app_timer.o(i.user_op_enque) refers to app_timer.o(.bss) for m_op_queue
    app_util_platform.o(i.app_util_critical_region_enter) refers to app_util_platform.o(i.sd_nvic_critical_region_enter) for sd_nvic_critical_region_enter
    app_util_platform.o(i.app_util_critical_region_exit) refers to app_util_platform.o(i.__sd_nvic_irq_disable) for __sd_nvic_irq_disable
    app_util_platform.o(i.app_util_critical_region_exit) refers to app_util_platform.o(.bss) for nrf_nvic_state
    app_util_platform.o(i.app_util_disable_irq) refers to app_util_platform.o(.data) for m_in_critical_region
    app_util_platform.o(i.app_util_enable_irq) refers to app_util_platform.o(.data) for m_in_critical_region
    app_util_platform.o(i.sd_nvic_critical_region_enter) refers to app_util_platform.o(i.__sd_nvic_irq_disable) for __sd_nvic_irq_disable
    app_util_platform.o(i.sd_nvic_critical_region_enter) refers to app_util_platform.o(.bss) for nrf_nvic_state
    nrf_assert.o(i.assert_nrf_callback) refers to app_error_weak.o(i.app_error_fault_handler) for app_error_fault_handler
    nrf_atfifo.o(i.nrf_atfifo_alloc_put) refers to nrf_atfifo.o(i.nrf_atfifo_item_alloc) for nrf_atfifo_item_alloc
    nrf_atfifo.o(i.nrf_atfifo_alloc_put) refers to memcpya.o(.text) for __aeabi_memcpy
    nrf_atfifo.o(i.nrf_atfifo_alloc_put) refers to nrf_atfifo.o(i.nrf_atfifo_item_put) for nrf_atfifo_item_put
    nrf_atfifo.o(i.nrf_atfifo_clear) refers to nrf_atfifo.o(.emb_text) for __asm___12_nrf_atfifo_c_51f461e1__nrf_atfifo_space_clear
    nrf_atfifo.o(i.nrf_atfifo_get_free) refers to nrf_atfifo.o(i.nrf_atfifo_item_get) for nrf_atfifo_item_get
    nrf_atfifo.o(i.nrf_atfifo_get_free) refers to memcpya.o(.text) for __aeabi_memcpy
    nrf_atfifo.o(i.nrf_atfifo_get_free) refers to nrf_atfifo.o(i.nrf_atfifo_item_free) for nrf_atfifo_item_free
    nrf_atfifo.o(i.nrf_atfifo_item_alloc) refers to nrf_atfifo.o(.emb_text) for __asm___12_nrf_atfifo_c_51f461e1__nrf_atfifo_wspace_req
    nrf_atfifo.o(i.nrf_atfifo_item_free) refers to nrf_atfifo.o(.emb_text) for __asm___12_nrf_atfifo_c_51f461e1__nrf_atfifo_rspace_close
    nrf_atfifo.o(i.nrf_atfifo_item_get) refers to nrf_atfifo.o(.emb_text) for __asm___12_nrf_atfifo_c_51f461e1__nrf_atfifo_rspace_req
    nrf_atfifo.o(i.nrf_atfifo_item_put) refers to nrf_atfifo.o(.emb_text) for __asm___12_nrf_atfifo_c_51f461e1__nrf_atfifo_wspace_close
    nrf_balloc.o(i.nrf_balloc_alloc) refers to app_util_platform.o(i.app_util_critical_region_enter) for app_util_critical_region_enter
    nrf_balloc.o(i.nrf_balloc_alloc) refers to nrf_balloc.o(i.nrf_balloc_idx2block) for nrf_balloc_idx2block
    nrf_balloc.o(i.nrf_balloc_alloc) refers to app_util_platform.o(i.app_util_critical_region_exit) for app_util_critical_region_exit
    nrf_balloc.o(i.nrf_balloc_free) refers to app_util_platform.o(i.app_util_critical_region_enter) for app_util_critical_region_enter
    nrf_balloc.o(i.nrf_balloc_free) refers to nrf_balloc.o(i.nrf_balloc_block2idx) for nrf_balloc_block2idx
    nrf_balloc.o(i.nrf_balloc_free) refers to app_util_platform.o(i.app_util_critical_region_exit) for app_util_critical_region_exit
    nrf_fprintf.o(i.nrf_fprintf) refers to nrf_fprintf_format.o(i.nrf_fprintf_fmt) for nrf_fprintf_fmt
    nrf_fprintf_format.o(i.buffer_add) refers to nrf_fprintf.o(i.nrf_fprintf_buffer_flush) for nrf_fprintf_buffer_flush
    nrf_fprintf_format.o(i.int_print) refers to nrf_fprintf_format.o(i.buffer_add) for buffer_add
    nrf_fprintf_format.o(i.int_print) refers to nrf_fprintf_format.o(i.unsigned_print) for unsigned_print
    nrf_fprintf_format.o(i.nrf_fprintf_fmt) refers to nrf_fprintf_format.o(i.buffer_add) for buffer_add
    nrf_fprintf_format.o(i.nrf_fprintf_fmt) refers to nrf_fprintf_format.o(i.int_print) for int_print
    nrf_fprintf_format.o(i.nrf_fprintf_fmt) refers to nrf_fprintf_format.o(i.unsigned_print) for unsigned_print
    nrf_fprintf_format.o(i.nrf_fprintf_fmt) refers to nrf_fprintf_format.o(i.string_print) for string_print
    nrf_fprintf_format.o(i.nrf_fprintf_fmt) refers to nrf_fprintf.o(i.nrf_fprintf_buffer_flush) for nrf_fprintf_buffer_flush
    nrf_fprintf_format.o(i.string_print) refers to nrf_fprintf_format.o(i.buffer_add) for buffer_add
    nrf_fprintf_format.o(i.string_print) refers to strlen.o(.text) for strlen
    nrf_fprintf_format.o(i.unsigned_print) refers to nrf_fprintf_format.o(i.buffer_add) for buffer_add
    nrf_fprintf_format.o(i.unsigned_print) refers to nrf_fprintf_format.o(.constdata) for _aV2C
    nrf_fstorage.o(i.nrf_fstorage_erase) refers to nrf_fstorage.o(i.addr_within_bounds) for addr_within_bounds
    nrf_fstorage.o(i.nrf_fstorage_read) refers to nrf_fstorage.o(i.addr_is_aligned32) for addr_is_aligned32
    nrf_fstorage.o(i.nrf_fstorage_read) refers to nrf_fstorage.o(i.addr_within_bounds) for addr_within_bounds
    nrf_fstorage.o(i.nrf_fstorage_write) refers to nrf_fstorage.o(i.addr_is_aligned32) for addr_is_aligned32
    nrf_fstorage.o(i.nrf_fstorage_write) refers to nrf_fstorage.o(i.addr_within_bounds) for addr_within_bounds
    nrf_fstorage_sd.o(i.erase) refers to nrf_atfifo.o(i.nrf_atfifo_item_alloc) for nrf_atfifo_item_alloc
    nrf_fstorage_sd.o(i.erase) refers to memseta.o(.text) for __aeabi_memclr4
    nrf_fstorage_sd.o(i.erase) refers to nrf_atfifo.o(i.nrf_atfifo_item_put) for nrf_atfifo_item_put
    nrf_fstorage_sd.o(i.erase) refers to nrf_fstorage_sd.o(i.queue_start) for queue_start
    nrf_fstorage_sd.o(i.erase) refers to nrf_fstorage_sd.o(.constdata) for m_fifo
    nrf_fstorage_sd.o(i.event_send) refers to memseta.o(.text) for __aeabi_memclr4
    nrf_fstorage_sd.o(i.event_send) refers to nrf_fstorage_sd.o(.constdata) for m_flash_info
    nrf_fstorage_sd.o(i.init) refers to nrf_fstorage_sd.o(.emb_text) for __asm___17_nrf_fstorage_sd_c_6e7dbfe9__nrf_atomic_internal_orr
    nrf_fstorage_sd.o(i.init) refers to nrf_sdh.o(i.nrf_sdh_is_enabled) for nrf_sdh_is_enabled
    nrf_fstorage_sd.o(i.init) refers to nrf_atfifo.o(i.nrf_atfifo_init) for nrf_atfifo_init
    nrf_fstorage_sd.o(i.init) refers to nrf_fstorage_sd.o(.bss) for m_flags
    nrf_fstorage_sd.o(i.init) refers to nrf_fstorage_sd.o(.constdata) for m_flash_info
    nrf_fstorage_sd.o(i.is_busy) refers to nrf_fstorage_sd.o(.bss) for m_flags
    nrf_fstorage_sd.o(i.nrf_fstorage_sdh_req_handler) refers to nrf_fstorage_sd.o(.bss) for m_flags
    nrf_fstorage_sd.o(i.nrf_fstorage_sdh_state_handler) refers to nrf_fstorage_sd.o(i.queue_process) for queue_process
    nrf_fstorage_sd.o(i.nrf_fstorage_sdh_state_handler) refers to nrf_fstorage_sd.o(.bss) for m_flags
    nrf_fstorage_sd.o(i.nrf_fstorage_sys_evt_handler) refers to nrf_fstorage_sd.o(i.on_operation_success) for on_operation_success
    nrf_fstorage_sd.o(i.nrf_fstorage_sys_evt_handler) refers to nrf_fstorage_sd.o(i.on_operation_failure) for on_operation_failure
    nrf_fstorage_sd.o(i.nrf_fstorage_sys_evt_handler) refers to nrf_fstorage_sd.o(i.event_send) for event_send
    nrf_fstorage_sd.o(i.nrf_fstorage_sys_evt_handler) refers to nrf_fstorage_sd.o(i.queue_free) for queue_free
    nrf_fstorage_sd.o(i.nrf_fstorage_sys_evt_handler) refers to nrf_fstorage_sd.o(i.queue_process) for queue_process
    nrf_fstorage_sd.o(i.nrf_fstorage_sys_evt_handler) refers to nrf_sdh.o(i.nrf_sdh_request_continue) for nrf_sdh_request_continue
    nrf_fstorage_sd.o(i.nrf_fstorage_sys_evt_handler) refers to nrf_fstorage_sd.o(.bss) for m_flags
    nrf_fstorage_sd.o(i.nrf_fstorage_sys_evt_handler) refers to nrf_fstorage_sd.o(.data) for m_p_cur_op
    nrf_fstorage_sd.o(i.on_operation_failure) refers to nrf_fstorage_sd.o(.bss) for m_flags
    nrf_fstorage_sd.o(i.on_operation_success) refers to nrf_fstorage_sd.o(.bss) for m_flags
    nrf_fstorage_sd.o(i.queue_free) refers to nrf_atfifo.o(i.nrf_atfifo_item_free) for nrf_atfifo_item_free
    nrf_fstorage_sd.o(i.queue_free) refers to nrf_fstorage_sd.o(.data) for m_iget_ctx
    nrf_fstorage_sd.o(i.queue_free) refers to nrf_fstorage_sd.o(.constdata) for m_fifo
    nrf_fstorage_sd.o(i.queue_load_next) refers to nrf_atfifo.o(i.nrf_atfifo_item_get) for nrf_atfifo_item_get
    nrf_fstorage_sd.o(i.queue_load_next) refers to nrf_fstorage_sd.o(.data) for m_iget_ctx
    nrf_fstorage_sd.o(i.queue_load_next) refers to nrf_fstorage_sd.o(.constdata) for m_fifo
    nrf_fstorage_sd.o(i.queue_process) refers to nrf_fstorage_sd.o(i.queue_load_next) for queue_load_next
    nrf_fstorage_sd.o(i.queue_process) refers to nrf_fstorage_sd.o(i.write_execute) for write_execute
    nrf_fstorage_sd.o(i.queue_process) refers to nrf_fstorage_sd.o(i.erase_execute) for erase_execute
    nrf_fstorage_sd.o(i.queue_process) refers to nrf_fstorage_sd.o(i.nrf_fstorage_sys_evt_handler) for nrf_fstorage_sys_evt_handler
    nrf_fstorage_sd.o(i.queue_process) refers to nrf_fstorage_sd.o(i.event_send) for event_send
    nrf_fstorage_sd.o(i.queue_process) refers to nrf_fstorage_sd.o(.bss) for m_flags
    nrf_fstorage_sd.o(i.queue_process) refers to nrf_fstorage_sd.o(.data) for m_p_cur_op
    nrf_fstorage_sd.o(i.queue_start) refers to nrf_fstorage_sd.o(.emb_text) for __asm___17_nrf_fstorage_sd_c_6e7dbfe9__nrf_atomic_internal_mov
    nrf_fstorage_sd.o(i.queue_start) refers to nrf_fstorage_sd.o(i.queue_process) for queue_process
    nrf_fstorage_sd.o(i.queue_start) refers to nrf_fstorage_sd.o(.bss) for m_flags
    nrf_fstorage_sd.o(i.read) refers to memcpya.o(.text) for __aeabi_memcpy
    nrf_fstorage_sd.o(i.uninit) refers to memseta.o(.text) for __aeabi_memclr4
    nrf_fstorage_sd.o(i.uninit) refers to nrf_atfifo.o(i.nrf_atfifo_clear) for nrf_atfifo_clear
    nrf_fstorage_sd.o(i.uninit) refers to nrf_fstorage_sd.o(.bss) for m_flags
    nrf_fstorage_sd.o(i.uninit) refers to nrf_fstorage_sd.o(.constdata) for m_fifo
    nrf_fstorage_sd.o(i.write) refers to nrf_atfifo.o(i.nrf_atfifo_item_alloc) for nrf_atfifo_item_alloc
    nrf_fstorage_sd.o(i.write) refers to memseta.o(.text) for __aeabi_memclr4
    nrf_fstorage_sd.o(i.write) refers to nrf_atfifo.o(i.nrf_atfifo_item_put) for nrf_atfifo_item_put
    nrf_fstorage_sd.o(i.write) refers to nrf_fstorage_sd.o(i.queue_start) for queue_start
    nrf_fstorage_sd.o(i.write) refers to nrf_fstorage_sd.o(.constdata) for m_fifo
    nrf_fstorage_sd.o(i.write_execute) refers to nrf_fstorage_sd.o(.constdata) for m_flash_info
    nrf_fstorage_sd.o(.constdata) refers to nrf_fstorage_sd.o(.bss) for m_fifo_inst
    nrf_fstorage_sd.o(.constdata) refers to nrf_fstorage_sd.o(i.init) for init
    nrf_fstorage_sd.o(.constdata) refers to nrf_fstorage_sd.o(i.uninit) for uninit
    nrf_fstorage_sd.o(.constdata) refers to nrf_fstorage_sd.o(i.read) for read
    nrf_fstorage_sd.o(.constdata) refers to nrf_fstorage_sd.o(i.write) for write
    nrf_fstorage_sd.o(.constdata) refers to nrf_fstorage_sd.o(i.erase) for erase
    nrf_fstorage_sd.o(.constdata) refers to nrf_fstorage_sd.o(i.rmap) for rmap
    nrf_fstorage_sd.o(.constdata) refers to nrf_fstorage_sd.o(i.wmap) for wmap
    nrf_fstorage_sd.o(.constdata) refers to nrf_fstorage_sd.o(i.is_busy) for is_busy
    nrf_fstorage_sd.o(sdh_req_observers0) refers to nrf_fstorage_sd.o(i.nrf_fstorage_sdh_req_handler) for nrf_fstorage_sdh_req_handler
    nrf_fstorage_sd.o(sdh_soc_observers0) refers to nrf_fstorage_sd.o(i.nrf_fstorage_sys_evt_handler) for nrf_fstorage_sys_evt_handler
    nrf_fstorage_sd.o(sdh_state_observers0) refers to nrf_fstorage_sd.o(i.nrf_fstorage_sdh_state_handler) for nrf_fstorage_sdh_state_handler
    nrf_memobj.o(i.memobj_op) refers to memcpya.o(.text) for __aeabi_memcpy
    nrf_memobj.o(i.nrf_memobj_alloc) refers to nrf_balloc.o(i.nrf_balloc_alloc) for nrf_balloc_alloc
    nrf_memobj.o(i.nrf_memobj_alloc) refers to nrf_memobj.o(i.nrf_memobj_free) for nrf_memobj_free
    nrf_memobj.o(i.nrf_memobj_free) refers to nrf_balloc.o(i.nrf_balloc_free) for nrf_balloc_free
    nrf_memobj.o(i.nrf_memobj_get) refers to nrf_memobj.o(.emb_text) for __asm___12_nrf_memobj_c_9bb9f865__nrf_atomic_internal_add
    nrf_memobj.o(i.nrf_memobj_pool_init) refers to nrf_balloc.o(i.nrf_balloc_init) for nrf_balloc_init
    nrf_memobj.o(i.nrf_memobj_put) refers to nrf_memobj.o(.emb_text) for __asm___12_nrf_memobj_c_9bb9f865__nrf_atomic_internal_sub
    nrf_memobj.o(i.nrf_memobj_put) refers to nrf_memobj.o(i.nrf_memobj_free) for nrf_memobj_free
    nrf_memobj.o(i.nrf_memobj_read) refers to nrf_memobj.o(i.memobj_op) for memobj_op
    nrf_memobj.o(i.nrf_memobj_write) refers to nrf_memobj.o(i.memobj_op) for memobj_op
    nrf_section_iter.o(i.nrf_section_iter_init) refers to nrf_section_iter.o(i.nrf_section_iter_item_set) for nrf_section_iter_item_set
    nrf_section_iter.o(i.nrf_section_iter_next) refers to nrf_section_iter.o(i.nrf_section_iter_item_set) for nrf_section_iter_item_set
    nrf_strerror.o(i.nrf_strerror_find) refers to nrf_strerror.o(.constdata) for nrf_strerror_array
    nrf_strerror.o(i.nrf_strerror_get) refers to nrf_strerror.o(i.nrf_strerror_find) for nrf_strerror_find
    nrf_strerror.o(i.nrf_strerror_get) refers to nrf_strerror.o(.constdata) for m_unknown_str
    nrf_strerror.o(.constdata) refers to nrf_strerror.o(.conststring) for .conststring
    sdk_mapped_flags.o(i.sdk_mapped_flags_first_key_index_get) refers to sdk_mapped_flags.o(i.sdk_mapped_flags_get_by_index) for sdk_mapped_flags_get_by_index
    sdk_mapped_flags.o(i.sdk_mapped_flags_get_by_key) refers to sdk_mapped_flags.o(i.sdk_mapped_flags_get_by_index) for sdk_mapped_flags_get_by_index
    sdk_mapped_flags.o(i.sdk_mapped_flags_get_by_key_w_idx) refers to sdk_mapped_flags.o(i.sdk_mapped_flags_get_by_index) for sdk_mapped_flags_get_by_index
    sdk_mapped_flags.o(i.sdk_mapped_flags_key_list_get) refers to sdk_mapped_flags.o(i.sdk_mapped_flags_get_by_index) for sdk_mapped_flags_get_by_index
    sdk_mapped_flags.o(i.sdk_mapped_flags_key_list_get) refers to memcpya.o(.text) for __aeabi_memcpy4
    sdk_mapped_flags.o(i.sdk_mapped_flags_n_flags_set) refers to sdk_mapped_flags.o(i.sdk_mapped_flags_get_by_index) for sdk_mapped_flags_get_by_index
    sdk_mapped_flags.o(i.sdk_mapped_flags_update_by_key) refers to sdk_mapped_flags.o(i.sdk_mapped_flags_bulk_update_by_key) for sdk_mapped_flags_bulk_update_by_key
    app_uart_fifo.o(i.app_uart_close) refers to nrf_drv_uart.o(i.nrf_drv_uart_uninit) for nrf_drv_uart_uninit
    app_uart_fifo.o(i.app_uart_close) refers to app_uart_fifo.o(.data) for app_uart_inst
    app_uart_fifo.o(i.app_uart_flush) refers to app_fifo.o(i.app_fifo_flush) for app_fifo_flush
    app_uart_fifo.o(i.app_uart_flush) refers to app_uart_fifo.o(.bss) for m_rx_fifo
    app_uart_fifo.o(i.app_uart_get) refers to app_fifo.o(i.app_fifo_get) for app_fifo_get
    app_uart_fifo.o(i.app_uart_get) refers to nrf_drv_uart.o(i.nrf_drv_uart_rx) for nrf_drv_uart_rx
    app_uart_fifo.o(i.app_uart_get) refers to app_error.o(i.app_error_handler_bare) for app_error_handler_bare
    app_uart_fifo.o(i.app_uart_get) refers to app_uart_fifo.o(.data) for m_rx_ovf
    app_uart_fifo.o(i.app_uart_get) refers to app_uart_fifo.o(.bss) for m_rx_fifo
    app_uart_fifo.o(i.app_uart_init) refers to app_fifo.o(i.app_fifo_init) for app_fifo_init
    app_uart_fifo.o(i.app_uart_init) refers to memcpya.o(.text) for __aeabi_memcpy4
    app_uart_fifo.o(i.app_uart_init) refers to nrf_drv_uart.o(i.nrf_drv_uart_init) for nrf_drv_uart_init
    app_uart_fifo.o(i.app_uart_init) refers to nrf_drv_uart.o(i.nrf_drv_uart_rx_enable) for nrf_drv_uart_rx_enable
    app_uart_fifo.o(i.app_uart_init) refers to nrf_drv_uart.o(i.nrf_drv_uart_rx) for nrf_drv_uart_rx
    app_uart_fifo.o(i.app_uart_init) refers to app_uart_fifo.o(.data) for m_event_handler
    app_uart_fifo.o(i.app_uart_init) refers to app_uart_fifo.o(.bss) for m_rx_fifo
    app_uart_fifo.o(i.app_uart_init) refers to app_uart_fifo.o(.constdata) for .constdata
    app_uart_fifo.o(i.app_uart_init) refers to app_uart_fifo.o(i.uart_event_handler) for uart_event_handler
    app_uart_fifo.o(i.app_uart_put) refers to app_fifo.o(i.app_fifo_put) for app_fifo_put
    app_uart_fifo.o(i.app_uart_put) refers to nrf_drv_uart.o(i.nrf_drv_uart_tx_in_progress) for nrf_drv_uart_tx_in_progress
    app_uart_fifo.o(i.app_uart_put) refers to app_fifo.o(i.app_fifo_get) for app_fifo_get
    app_uart_fifo.o(i.app_uart_put) refers to nrf_drv_uart.o(i.nrf_drv_uart_tx) for nrf_drv_uart_tx
    app_uart_fifo.o(i.app_uart_put) refers to app_uart_fifo.o(.bss) for m_tx_fifo
    app_uart_fifo.o(i.app_uart_put) refers to app_uart_fifo.o(.data) for app_uart_inst
    app_uart_fifo.o(i.uart_event_handler) refers to app_fifo.o(i.app_fifo_put) for app_fifo_put
    app_uart_fifo.o(i.uart_event_handler) refers to app_uart_fifo.o(i.fifo_length) for fifo_length
    app_uart_fifo.o(i.uart_event_handler) refers to nrf_drv_uart.o(i.nrf_drv_uart_rx) for nrf_drv_uart_rx
    app_uart_fifo.o(i.uart_event_handler) refers to app_fifo.o(i.app_fifo_get) for app_fifo_get
    app_uart_fifo.o(i.uart_event_handler) refers to nrf_drv_uart.o(i.nrf_drv_uart_tx) for nrf_drv_uart_tx
    app_uart_fifo.o(i.uart_event_handler) refers to app_uart_fifo.o(.bss) for m_rx_fifo
    app_uart_fifo.o(i.uart_event_handler) refers to app_uart_fifo.o(.data) for m_event_handler
    app_fifo.o(i.app_fifo_get) refers to app_fifo.o(i.fifo_length) for fifo_length
    app_fifo.o(i.app_fifo_get) refers to app_fifo.o(i.fifo_get) for fifo_get
    app_fifo.o(i.app_fifo_peek) refers to app_fifo.o(i.fifo_length) for fifo_length
    app_fifo.o(i.app_fifo_peek) refers to app_fifo.o(i.fifo_peek) for fifo_peek
    app_fifo.o(i.app_fifo_put) refers to app_fifo.o(i.fifo_length) for fifo_length
    app_fifo.o(i.app_fifo_put) refers to app_fifo.o(i.fifo_put) for fifo_put
    app_fifo.o(i.app_fifo_read) refers to app_fifo.o(i.fifo_length) for fifo_length
    app_fifo.o(i.app_fifo_read) refers to app_fifo.o(i.fifo_get) for fifo_get
    app_fifo.o(i.app_fifo_write) refers to app_fifo.o(i.fifo_length) for fifo_length
    app_fifo.o(i.app_fifo_write) refers to app_fifo.o(i.fifo_put) for fifo_put
    app_fifo.o(i.fifo_get) refers to app_fifo.o(i.fifo_peek) for fifo_peek
    segger_rtt.o(i.SEGGER_RTT_AllocDownBuffer) refers to segger_rtt.o(i._DoInit) for _DoInit
    segger_rtt.o(i.SEGGER_RTT_AllocDownBuffer) refers to app_util_platform.o(i.app_util_critical_region_enter) for app_util_critical_region_enter
    segger_rtt.o(i.SEGGER_RTT_AllocDownBuffer) refers to app_util_platform.o(i.app_util_critical_region_exit) for app_util_critical_region_exit
    segger_rtt.o(i.SEGGER_RTT_AllocDownBuffer) refers to segger_rtt.o(.bss) for _SEGGER_RTT
    segger_rtt.o(i.SEGGER_RTT_AllocUpBuffer) refers to segger_rtt.o(i._DoInit) for _DoInit
    segger_rtt.o(i.SEGGER_RTT_AllocUpBuffer) refers to app_util_platform.o(i.app_util_critical_region_enter) for app_util_critical_region_enter
    segger_rtt.o(i.SEGGER_RTT_AllocUpBuffer) refers to app_util_platform.o(i.app_util_critical_region_exit) for app_util_critical_region_exit
    segger_rtt.o(i.SEGGER_RTT_AllocUpBuffer) refers to segger_rtt.o(.bss) for _SEGGER_RTT
    segger_rtt.o(i.SEGGER_RTT_ConfigDownBuffer) refers to segger_rtt.o(i._DoInit) for _DoInit
    segger_rtt.o(i.SEGGER_RTT_ConfigDownBuffer) refers to app_util_platform.o(i.app_util_critical_region_enter) for app_util_critical_region_enter
    segger_rtt.o(i.SEGGER_RTT_ConfigDownBuffer) refers to app_util_platform.o(i.app_util_critical_region_exit) for app_util_critical_region_exit
    segger_rtt.o(i.SEGGER_RTT_ConfigDownBuffer) refers to segger_rtt.o(.bss) for _SEGGER_RTT
    segger_rtt.o(i.SEGGER_RTT_ConfigUpBuffer) refers to segger_rtt.o(i._DoInit) for _DoInit
    segger_rtt.o(i.SEGGER_RTT_ConfigUpBuffer) refers to app_util_platform.o(i.app_util_critical_region_enter) for app_util_critical_region_enter
    segger_rtt.o(i.SEGGER_RTT_ConfigUpBuffer) refers to app_util_platform.o(i.app_util_critical_region_exit) for app_util_critical_region_exit
    segger_rtt.o(i.SEGGER_RTT_ConfigUpBuffer) refers to segger_rtt.o(.bss) for _SEGGER_RTT
    segger_rtt.o(i.SEGGER_RTT_GetKey) refers to segger_rtt.o(i.SEGGER_RTT_Read) for SEGGER_RTT_Read
    segger_rtt.o(i.SEGGER_RTT_HasData) refers to segger_rtt.o(.bss) for _SEGGER_RTT
    segger_rtt.o(i.SEGGER_RTT_HasKey) refers to segger_rtt.o(i._DoInit) for _DoInit
    segger_rtt.o(i.SEGGER_RTT_HasKey) refers to segger_rtt.o(.bss) for _SEGGER_RTT
    segger_rtt.o(i.SEGGER_RTT_Init) refers to segger_rtt.o(i._DoInit) for _DoInit
    segger_rtt.o(i.SEGGER_RTT_PutChar) refers to segger_rtt.o(i._DoInit) for _DoInit
    segger_rtt.o(i.SEGGER_RTT_PutChar) refers to app_util_platform.o(i.app_util_critical_region_enter) for app_util_critical_region_enter
    segger_rtt.o(i.SEGGER_RTT_PutChar) refers to app_util_platform.o(i.app_util_critical_region_exit) for app_util_critical_region_exit
    segger_rtt.o(i.SEGGER_RTT_PutChar) refers to segger_rtt.o(.bss) for _SEGGER_RTT
    segger_rtt.o(i.SEGGER_RTT_PutCharSkip) refers to segger_rtt.o(i._DoInit) for _DoInit
    segger_rtt.o(i.SEGGER_RTT_PutCharSkip) refers to app_util_platform.o(i.app_util_critical_region_enter) for app_util_critical_region_enter
    segger_rtt.o(i.SEGGER_RTT_PutCharSkip) refers to app_util_platform.o(i.app_util_critical_region_exit) for app_util_critical_region_exit
    segger_rtt.o(i.SEGGER_RTT_PutCharSkip) refers to segger_rtt.o(.bss) for _SEGGER_RTT
    segger_rtt.o(i.SEGGER_RTT_PutCharSkipNoLock) refers to segger_rtt.o(.bss) for _SEGGER_RTT
    segger_rtt.o(i.SEGGER_RTT_Read) refers to app_util_platform.o(i.app_util_critical_region_enter) for app_util_critical_region_enter
    segger_rtt.o(i.SEGGER_RTT_Read) refers to segger_rtt.o(i.SEGGER_RTT_ReadNoLock) for SEGGER_RTT_ReadNoLock
    segger_rtt.o(i.SEGGER_RTT_Read) refers to app_util_platform.o(i.app_util_critical_region_exit) for app_util_critical_region_exit
    segger_rtt.o(i.SEGGER_RTT_ReadNoLock) refers to segger_rtt.o(i._DoInit) for _DoInit
    segger_rtt.o(i.SEGGER_RTT_ReadNoLock) refers to memcpya.o(.text) for __aeabi_memcpy
    segger_rtt.o(i.SEGGER_RTT_ReadNoLock) refers to segger_rtt.o(.bss) for _SEGGER_RTT
    segger_rtt.o(i.SEGGER_RTT_SetFlagsDownBuffer) refers to segger_rtt.o(i._DoInit) for _DoInit
    segger_rtt.o(i.SEGGER_RTT_SetFlagsDownBuffer) refers to app_util_platform.o(i.app_util_critical_region_enter) for app_util_critical_region_enter
    segger_rtt.o(i.SEGGER_RTT_SetFlagsDownBuffer) refers to app_util_platform.o(i.app_util_critical_region_exit) for app_util_critical_region_exit
    segger_rtt.o(i.SEGGER_RTT_SetFlagsDownBuffer) refers to segger_rtt.o(.bss) for _SEGGER_RTT
    segger_rtt.o(i.SEGGER_RTT_SetFlagsUpBuffer) refers to segger_rtt.o(i._DoInit) for _DoInit
    segger_rtt.o(i.SEGGER_RTT_SetFlagsUpBuffer) refers to app_util_platform.o(i.app_util_critical_region_enter) for app_util_critical_region_enter
    segger_rtt.o(i.SEGGER_RTT_SetFlagsUpBuffer) refers to app_util_platform.o(i.app_util_critical_region_exit) for app_util_critical_region_exit
    segger_rtt.o(i.SEGGER_RTT_SetFlagsUpBuffer) refers to segger_rtt.o(.bss) for _SEGGER_RTT
    segger_rtt.o(i.SEGGER_RTT_SetNameDownBuffer) refers to segger_rtt.o(i._DoInit) for _DoInit
    segger_rtt.o(i.SEGGER_RTT_SetNameDownBuffer) refers to app_util_platform.o(i.app_util_critical_region_enter) for app_util_critical_region_enter
    segger_rtt.o(i.SEGGER_RTT_SetNameDownBuffer) refers to app_util_platform.o(i.app_util_critical_region_exit) for app_util_critical_region_exit
    segger_rtt.o(i.SEGGER_RTT_SetNameDownBuffer) refers to segger_rtt.o(.bss) for _SEGGER_RTT
    segger_rtt.o(i.SEGGER_RTT_SetNameUpBuffer) refers to segger_rtt.o(i._DoInit) for _DoInit
    segger_rtt.o(i.SEGGER_RTT_SetNameUpBuffer) refers to app_util_platform.o(i.app_util_critical_region_enter) for app_util_critical_region_enter
    segger_rtt.o(i.SEGGER_RTT_SetNameUpBuffer) refers to app_util_platform.o(i.app_util_critical_region_exit) for app_util_critical_region_exit
    segger_rtt.o(i.SEGGER_RTT_SetNameUpBuffer) refers to segger_rtt.o(.bss) for _SEGGER_RTT
    segger_rtt.o(i.SEGGER_RTT_SetTerminal) refers to segger_rtt.o(i._DoInit) for _DoInit
    segger_rtt.o(i.SEGGER_RTT_SetTerminal) refers to app_util_platform.o(i.app_util_critical_region_enter) for app_util_critical_region_enter
    segger_rtt.o(i.SEGGER_RTT_SetTerminal) refers to segger_rtt.o(i._WriteBlocking) for _WriteBlocking
    segger_rtt.o(i.SEGGER_RTT_SetTerminal) refers to segger_rtt.o(i._GetAvailWriteSpace) for _GetAvailWriteSpace
    segger_rtt.o(i.SEGGER_RTT_SetTerminal) refers to segger_rtt.o(i._WriteNoCheck) for _WriteNoCheck
    segger_rtt.o(i.SEGGER_RTT_SetTerminal) refers to app_util_platform.o(i.app_util_critical_region_exit) for app_util_critical_region_exit
    segger_rtt.o(i.SEGGER_RTT_SetTerminal) refers to segger_rtt.o(.bss) for _SEGGER_RTT
    segger_rtt.o(i.SEGGER_RTT_SetTerminal) refers to segger_rtt.o(.data) for _aTerminalId
    segger_rtt.o(i.SEGGER_RTT_TerminalOut) refers to segger_rtt.o(i._DoInit) for _DoInit
    segger_rtt.o(i.SEGGER_RTT_TerminalOut) refers to strlen.o(.text) for strlen
    segger_rtt.o(i.SEGGER_RTT_TerminalOut) refers to app_util_platform.o(i.app_util_critical_region_enter) for app_util_critical_region_enter
    segger_rtt.o(i.SEGGER_RTT_TerminalOut) refers to segger_rtt.o(i._GetAvailWriteSpace) for _GetAvailWriteSpace
    segger_rtt.o(i.SEGGER_RTT_TerminalOut) refers to segger_rtt.o(i._PostTerminalSwitch) for _PostTerminalSwitch
    segger_rtt.o(i.SEGGER_RTT_TerminalOut) refers to segger_rtt.o(i._WriteBlocking) for _WriteBlocking
    segger_rtt.o(i.SEGGER_RTT_TerminalOut) refers to app_util_platform.o(i.app_util_critical_region_exit) for app_util_critical_region_exit
    segger_rtt.o(i.SEGGER_RTT_TerminalOut) refers to segger_rtt.o(.bss) for _SEGGER_RTT
    segger_rtt.o(i.SEGGER_RTT_TerminalOut) refers to segger_rtt.o(.data) for _ActiveTerminal
    segger_rtt.o(i.SEGGER_RTT_WaitKey) refers to segger_rtt.o(i.SEGGER_RTT_GetKey) for SEGGER_RTT_GetKey
    segger_rtt.o(i.SEGGER_RTT_Write) refers to segger_rtt.o(i._DoInit) for _DoInit
    segger_rtt.o(i.SEGGER_RTT_Write) refers to app_util_platform.o(i.app_util_critical_region_enter) for app_util_critical_region_enter
    segger_rtt.o(i.SEGGER_RTT_Write) refers to segger_rtt.o(i.SEGGER_RTT_WriteNoLock) for SEGGER_RTT_WriteNoLock
    segger_rtt.o(i.SEGGER_RTT_Write) refers to app_util_platform.o(i.app_util_critical_region_exit) for app_util_critical_region_exit
    segger_rtt.o(i.SEGGER_RTT_Write) refers to segger_rtt.o(.bss) for _SEGGER_RTT
    segger_rtt.o(i.SEGGER_RTT_WriteNoLock) refers to segger_rtt.o(i._GetAvailWriteSpace) for _GetAvailWriteSpace
    segger_rtt.o(i.SEGGER_RTT_WriteNoLock) refers to segger_rtt.o(i._WriteNoCheck) for _WriteNoCheck
    segger_rtt.o(i.SEGGER_RTT_WriteNoLock) refers to segger_rtt.o(i._WriteBlocking) for _WriteBlocking
    segger_rtt.o(i.SEGGER_RTT_WriteNoLock) refers to segger_rtt.o(.bss) for _SEGGER_RTT
    segger_rtt.o(i.SEGGER_RTT_WriteSkipNoLock) refers to memcpya.o(.text) for __aeabi_memcpy
    segger_rtt.o(i.SEGGER_RTT_WriteSkipNoLock) refers to segger_rtt.o(.bss) for _SEGGER_RTT
    segger_rtt.o(i.SEGGER_RTT_WriteString) refers to strlen.o(.text) for strlen
    segger_rtt.o(i.SEGGER_RTT_WriteString) refers to segger_rtt.o(i.SEGGER_RTT_Write) for SEGGER_RTT_Write
    segger_rtt.o(i.SEGGER_RTT_WriteWithOverwriteNoLock) refers to memcpya.o(.text) for __aeabi_memcpy
    segger_rtt.o(i.SEGGER_RTT_WriteWithOverwriteNoLock) refers to segger_rtt.o(.bss) for _SEGGER_RTT
    segger_rtt.o(i._DoInit) refers to strcpy.o(.text) for strcpy
    segger_rtt.o(i._DoInit) refers to segger_rtt.o(.bss) for _SEGGER_RTT
    segger_rtt.o(i._PostTerminalSwitch) refers to segger_rtt.o(i._WriteBlocking) for _WriteBlocking
    segger_rtt.o(i._PostTerminalSwitch) refers to segger_rtt.o(.data) for _aTerminalId
    segger_rtt.o(i._WriteBlocking) refers to memcpya.o(.text) for __aeabi_memcpy
    segger_rtt.o(i._WriteNoCheck) refers to memcpya.o(.text) for __aeabi_memcpy
    segger_rtt_syscalls_keil.o(i._sys_open) refers to strcmp.o(.text) for strcmp
    segger_rtt_syscalls_keil.o(i._sys_open) refers to segger_rtt_syscalls_keil.o(.constdata) for __stdout_name
    segger_rtt_syscalls_keil.o(i._sys_write) refers to segger_rtt.o(i.SEGGER_RTT_Write) for SEGGER_RTT_Write
    segger_rtt_syscalls_keil.o(i._ttywrch) refers to fputc.o(i.fputc) for fputc
    segger_rtt_syscalls_keil.o(i._ttywrch) refers to stdout.o(.data) for __stdout
    segger_rtt_printf.o(i.SEGGER_RTT_printf) refers to segger_rtt_printf.o(i.SEGGER_RTT_vprintf) for SEGGER_RTT_vprintf
    segger_rtt_printf.o(i.SEGGER_RTT_vprintf) refers to segger_rtt_printf.o(i._StoreChar) for _StoreChar
    segger_rtt_printf.o(i.SEGGER_RTT_vprintf) refers to segger_rtt_printf.o(i._PrintInt) for _PrintInt
    segger_rtt_printf.o(i.SEGGER_RTT_vprintf) refers to segger_rtt_printf.o(i._PrintUnsigned) for _PrintUnsigned
    segger_rtt_printf.o(i.SEGGER_RTT_vprintf) refers to segger_rtt.o(i.SEGGER_RTT_Write) for SEGGER_RTT_Write
    segger_rtt_printf.o(i._PrintInt) refers to segger_rtt_printf.o(i._StoreChar) for _StoreChar
    segger_rtt_printf.o(i._PrintInt) refers to segger_rtt_printf.o(i._PrintUnsigned) for _PrintUnsigned
    segger_rtt_printf.o(i._PrintUnsigned) refers to segger_rtt_printf.o(i._StoreChar) for _StoreChar
    segger_rtt_printf.o(i._PrintUnsigned) refers to segger_rtt_printf.o(.constdata) for _aV2C
    segger_rtt_printf.o(i._StoreChar) refers to segger_rtt.o(i.SEGGER_RTT_Write) for SEGGER_RTT_Write
    nrf_sdh.o(i.SWI2_EGU2_IRQHandler) refers to nrf_sdh.o(i.nrf_sdh_evts_poll) for nrf_sdh_evts_poll
    nrf_sdh.o(i.nrf_sdh_disable_request) refers to nrf_sdh.o(i.sdh_request_observer_notify) for sdh_request_observer_notify
    nrf_sdh.o(i.nrf_sdh_disable_request) refers to nrf_sdh.o(i.sdh_state_observer_notify) for sdh_state_observer_notify
    nrf_sdh.o(i.nrf_sdh_disable_request) refers to nrf_sdh.o(i.softdevice_evt_irq_disable) for softdevice_evt_irq_disable
    nrf_sdh.o(i.nrf_sdh_disable_request) refers to nrf_sdh.o(.data) for m_nrf_sdh_enabled
    nrf_sdh.o(i.nrf_sdh_enable_request) refers to nrf_sdh.o(i.sdh_request_observer_notify) for sdh_request_observer_notify
    nrf_sdh.o(i.nrf_sdh_enable_request) refers to nrf_sdh.o(i.sdh_state_observer_notify) for sdh_state_observer_notify
    nrf_sdh.o(i.nrf_sdh_enable_request) refers to nrf_sdh.o(i.swi_interrupt_priority_workaround) for swi_interrupt_priority_workaround
    nrf_sdh.o(i.nrf_sdh_enable_request) refers to nrf_sdh.o(i.softdevices_evt_irq_enable) for softdevices_evt_irq_enable
    nrf_sdh.o(i.nrf_sdh_enable_request) refers to nrf_sdh.o(.data) for m_nrf_sdh_enabled
    nrf_sdh.o(i.nrf_sdh_enable_request) refers to nrf_sdh.o(.constdata) for .constdata
    nrf_sdh.o(i.nrf_sdh_enable_request) refers to app_error_weak.o(i.app_error_fault_handler) for app_error_fault_handler
    nrf_sdh.o(i.nrf_sdh_evts_poll) refers to nrf_section_iter.o(i.nrf_section_iter_init) for nrf_section_iter_init
    nrf_sdh.o(i.nrf_sdh_evts_poll) refers to nrf_sdh.o(i.nrf_section_iter_get) for nrf_section_iter_get
    nrf_sdh.o(i.nrf_sdh_evts_poll) refers to nrf_section_iter.o(i.nrf_section_iter_next) for nrf_section_iter_next
    nrf_sdh.o(i.nrf_sdh_evts_poll) refers to nrf_sdh.o(.constdata) for sdh_stack_observers
    nrf_sdh.o(i.nrf_sdh_is_enabled) refers to nrf_sdh.o(.data) for m_nrf_sdh_enabled
    nrf_sdh.o(i.nrf_sdh_is_suspended) refers to nrf_sdh.o(.data) for m_nrf_sdh_enabled
    nrf_sdh.o(i.nrf_sdh_request_continue) refers to nrf_sdh.o(i.nrf_sdh_disable_request) for nrf_sdh_disable_request
    nrf_sdh.o(i.nrf_sdh_request_continue) refers to nrf_sdh.o(i.nrf_sdh_enable_request) for nrf_sdh_enable_request
    nrf_sdh.o(i.nrf_sdh_request_continue) refers to nrf_sdh.o(.data) for m_nrf_sdh_continue
    nrf_sdh.o(i.nrf_sdh_resume) refers to nrf_sdh.o(i.__sd_nvic_app_accessible_irq) for __sd_nvic_app_accessible_irq
    nrf_sdh.o(i.nrf_sdh_resume) refers to app_error.o(i.app_error_handler_bare) for app_error_handler_bare
    nrf_sdh.o(i.nrf_sdh_resume) refers to nrf_sdh.o(i.softdevices_evt_irq_enable) for softdevices_evt_irq_enable
    nrf_sdh.o(i.nrf_sdh_resume) refers to nrf_sdh.o(.data) for m_nrf_sdh_suspended
    nrf_sdh.o(i.nrf_sdh_suspend) refers to nrf_sdh.o(i.softdevice_evt_irq_disable) for softdevice_evt_irq_disable
    nrf_sdh.o(i.nrf_sdh_suspend) refers to nrf_sdh.o(.data) for m_nrf_sdh_enabled
    nrf_sdh.o(i.sd_nvic_EnableIRQ) refers to nrf_sdh.o(i.__sd_nvic_app_accessible_irq) for __sd_nvic_app_accessible_irq
    nrf_sdh.o(i.sd_nvic_EnableIRQ) refers to nrf_sdh.o(i.__sd_nvic_is_app_accessible_priority) for __sd_nvic_is_app_accessible_priority
    nrf_sdh.o(i.sd_nvic_EnableIRQ) refers to app_util_platform.o(.bss) for nrf_nvic_state
    nrf_sdh.o(i.sd_nvic_SetPriority) refers to nrf_sdh.o(i.__sd_nvic_app_accessible_irq) for __sd_nvic_app_accessible_irq
    nrf_sdh.o(i.sd_nvic_SetPriority) refers to nrf_sdh.o(i.__sd_nvic_is_app_accessible_priority) for __sd_nvic_is_app_accessible_priority
    nrf_sdh.o(i.sdh_request_observer_notify) refers to nrf_section_iter.o(i.nrf_section_iter_init) for nrf_section_iter_init
    nrf_sdh.o(i.sdh_request_observer_notify) refers to nrf_sdh.o(i.nrf_section_iter_get) for nrf_section_iter_get
    nrf_sdh.o(i.sdh_request_observer_notify) refers to nrf_section_iter.o(i.nrf_section_iter_next) for nrf_section_iter_next
    nrf_sdh.o(i.sdh_request_observer_notify) refers to nrf_sdh.o(.constdata) for sdh_req_observers
    nrf_sdh.o(i.sdh_state_observer_notify) refers to nrf_section_iter.o(i.nrf_section_iter_init) for nrf_section_iter_init
    nrf_sdh.o(i.sdh_state_observer_notify) refers to nrf_sdh.o(i.nrf_section_iter_get) for nrf_section_iter_get
    nrf_sdh.o(i.sdh_state_observer_notify) refers to nrf_section_iter.o(i.nrf_section_iter_next) for nrf_section_iter_next
    nrf_sdh.o(i.sdh_state_observer_notify) refers to nrf_sdh.o(.constdata) for sdh_state_observers
    nrf_sdh.o(i.softdevice_evt_irq_disable) refers to nrf_sdh.o(i.__sd_nvic_app_accessible_irq) for __sd_nvic_app_accessible_irq
    nrf_sdh.o(i.softdevice_evt_irq_disable) refers to app_error.o(i.app_error_handler_bare) for app_error_handler_bare
    nrf_sdh.o(i.softdevice_evt_irq_disable) refers to app_util_platform.o(.bss) for nrf_nvic_state
    nrf_sdh.o(i.softdevices_evt_irq_enable) refers to nrf_sdh.o(i.sd_nvic_EnableIRQ) for sd_nvic_EnableIRQ
    nrf_sdh.o(i.softdevices_evt_irq_enable) refers to app_error.o(i.app_error_handler_bare) for app_error_handler_bare
    nrf_sdh.o(i.swi_interrupt_priority_workaround) refers to nrf_sdh.o(i.sd_nvic_SetPriority) for sd_nvic_SetPriority
    nrf_sdh.o(i.swi_interrupt_priority_workaround) refers to app_error.o(i.app_error_handler_bare) for app_error_handler_bare
    nrf_sdh_ble.o(i.nrf_sdh_ble_app_ram_start_get) refers to nrf_sdh_ble.o(.constdata) for m_ram_start
    nrf_sdh_ble.o(i.nrf_sdh_ble_default_cfg_set) refers to nrf_sdh_ble.o(i.nrf_sdh_ble_app_ram_start_get) for nrf_sdh_ble_app_ram_start_get
    nrf_sdh_ble.o(i.nrf_sdh_ble_evts_poll) refers to nrf_section_iter.o(i.nrf_section_iter_init) for nrf_section_iter_init
    nrf_sdh_ble.o(i.nrf_sdh_ble_evts_poll) refers to nrf_section_iter.o(i.nrf_section_iter_next) for nrf_section_iter_next
    nrf_sdh_ble.o(i.nrf_sdh_ble_evts_poll) refers to app_error.o(i.app_error_handler_bare) for app_error_handler_bare
    nrf_sdh_ble.o(i.nrf_sdh_ble_evts_poll) refers to nrf_sdh_ble.o(.constdata) for sdh_ble_observers
    nrf_sdh_ble.o(sdh_stack_observers0) refers to nrf_sdh_ble.o(i.nrf_sdh_ble_evts_poll) for nrf_sdh_ble_evts_poll
    nrf_sdh_soc.o(i.nrf_sdh_soc_evts_poll) refers to nrf_section_iter.o(i.nrf_section_iter_init) for nrf_section_iter_init
    nrf_sdh_soc.o(i.nrf_sdh_soc_evts_poll) refers to nrf_section_iter.o(i.nrf_section_iter_next) for nrf_section_iter_next
    nrf_sdh_soc.o(i.nrf_sdh_soc_evts_poll) refers to app_error.o(i.app_error_handler_bare) for app_error_handler_bare
    nrf_sdh_soc.o(i.nrf_sdh_soc_evts_poll) refers to nrf_sdh_soc.o(.constdata) for sdh_soc_observers
    nrf_sdh_soc.o(sdh_stack_observers0) refers to nrf_sdh_soc.o(i.nrf_sdh_soc_evts_poll) for nrf_sdh_soc_evts_poll
    arm_startup_nrf52.o(RESET) refers to arm_startup_nrf52.o(STACK) for __initial_sp
    arm_startup_nrf52.o(RESET) refers to arm_startup_nrf52.o(.text) for Reset_Handler
    arm_startup_nrf52.o(RESET) refers to nrf_drv_clock.o(i.POWER_CLOCK_IRQHandler) for POWER_CLOCK_IRQHandler
    arm_startup_nrf52.o(RESET) refers to nrf_drv_uart.o(i.UARTE0_UART0_IRQHandler) for UARTE0_UART0_IRQHandler
    arm_startup_nrf52.o(RESET) refers to nrf_drv_gpiote.o(i.GPIOTE_IRQHandler) for GPIOTE_IRQHandler
    arm_startup_nrf52.o(RESET) refers to app_timer.o(i.RTC1_IRQHandler) for RTC1_IRQHandler
    arm_startup_nrf52.o(RESET) refers to app_timer.o(i.SWI0_EGU0_IRQHandler) for SWI0_EGU0_IRQHandler
    arm_startup_nrf52.o(RESET) refers to nrf_sdh.o(i.SWI2_EGU2_IRQHandler) for SWI2_EGU2_IRQHandler
    arm_startup_nrf52.o(.text) refers to system_nrf52.o(i.SystemInit) for SystemInit
    arm_startup_nrf52.o(.text) refers to entry.o(.ARM.Collect$$$$00000000) for __main
    system_nrf52.o(i.SystemCoreClockUpdate) refers to system_nrf52.o(.data) for SystemCoreClock
    system_nrf52.o(i.SystemInit) refers to system_nrf52.o(i.errata_12) for errata_12
    system_nrf52.o(i.SystemInit) refers to system_nrf52.o(i.errata_16) for errata_16
    system_nrf52.o(i.SystemInit) refers to system_nrf52.o(i.errata_31) for errata_31
    system_nrf52.o(i.SystemInit) refers to system_nrf52.o(i.errata_32) for errata_32
    system_nrf52.o(i.SystemInit) refers to system_nrf52.o(i.errata_36) for errata_36
    system_nrf52.o(i.SystemInit) refers to system_nrf52.o(i.errata_37) for errata_37
    system_nrf52.o(i.SystemInit) refers to system_nrf52.o(i.errata_57) for errata_57
    system_nrf52.o(i.SystemInit) refers to system_nrf52.o(i.errata_66) for errata_66
    system_nrf52.o(i.SystemInit) refers to system_nrf52.o(i.errata_108) for errata_108
    system_nrf52.o(i.SystemInit) refers to system_nrf52.o(i.errata_136) for errata_136
    system_nrf52.o(i.SystemInit) refers to system_nrf52.o(i.errata_182) for errata_182
    system_nrf52.o(i.SystemInit) refers to system_nrf52.o(i.SystemCoreClockUpdate) for SystemCoreClockUpdate
    entry.o(.ARM.Collect$$$$00000000) refers (Special) to entry10a.o(.ARM.Collect$$$$0000000D) for __rt_final_cpp
    entry.o(.ARM.Collect$$$$00000000) refers (Special) to entry11a.o(.ARM.Collect$$$$0000000F) for __rt_final_exit
    entry.o(.ARM.Collect$$$$00000000) refers (Special) to entry7b.o(.ARM.Collect$$$$00000008) for _main_clock
    entry.o(.ARM.Collect$$$$00000000) refers (Special) to entry8b.o(.ARM.Collect$$$$0000000A) for _main_cpp_init
    entry.o(.ARM.Collect$$$$00000000) refers (Special) to entry9a.o(.ARM.Collect$$$$0000000B) for _main_init
    entry.o(.ARM.Collect$$$$00000000) refers (Special) to entry5.o(.ARM.Collect$$$$00000004) for _main_scatterload
    entry.o(.ARM.Collect$$$$00000000) refers (Special) to entry2.o(.ARM.Collect$$$$00000001) for _main_stk
    fputc.o(i.fputc) refers (Special) to iusesemip.o(.text) for __I$use$semihosting$fputc
    fputc.o(i.fputc) refers (Special) to semi.o(.text) for __semihosting_library_function
    uldiv.o(.text) refers to llushr.o(.text) for __aeabi_llsr
    uldiv.o(.text) refers to llshl.o(.text) for __aeabi_llsl
    entry2.o(.ARM.Collect$$$$00000001) refers to entry2.o(.ARM.Collect$$$$00002712) for __lit__00000000
    entry2.o(.ARM.Collect$$$$00002712) refers to arm_startup_nrf52.o(STACK) for __initial_sp
    entry2.o(__vectab_stack_and_reset_area) refers to arm_startup_nrf52.o(STACK) for __initial_sp
    entry2.o(__vectab_stack_and_reset_area) refers to entry.o(.ARM.Collect$$$$00000000) for __main
    entry5.o(.ARM.Collect$$$$00000004) refers to init.o(.text) for __scatterload
    entry9a.o(.ARM.Collect$$$$0000000B) refers to main.o(i.main) for main
    entry9b.o(.ARM.Collect$$$$0000000C) refers to main.o(i.main) for main
    init.o(.text) refers to entry5.o(.ARM.Collect$$$$00000004) for __main_after_scatterload


==============================================================================

Removing Unused input sections from the image.

    Removing main.o(.rev16_text), (4 bytes).
    Removing main.o(.revsh_text), (4 bytes).
    Removing main.o(.rrx_text), (6 bytes).
    Removing main.o(i.assert_nrf_callback), (24 bytes).
    Removing boards.o(.rev16_text), (4 bytes).
    Removing boards.o(.revsh_text), (4 bytes).
    Removing boards.o(.rrx_text), (6 bytes).
    Removing boards.o(i.bsp_board_button_idx_to_pin), (12 bytes).
    Removing boards.o(i.bsp_board_button_state_get), (48 bytes).
    Removing boards.o(i.bsp_board_buttons_init), (44 bytes).
    Removing boards.o(i.bsp_board_led_idx_to_pin), (12 bytes).
    Removing boards.o(i.bsp_board_pin_to_led_idx), (36 bytes).
    Removing bsp.o(.rev16_text), (4 bytes).
    Removing bsp.o(.revsh_text), (4 bytes).
    Removing bsp.o(.rrx_text), (6 bytes).
    Removing bsp.o(i.alert_timer_handler), (12 bytes).
    Removing bsp.o(i.bsp_button_is_pressed), (12 bytes).
    Removing bsp.o(i.bsp_buttons_disable), (8 bytes).
    Removing bsp.o(i.bsp_buttons_enable), (8 bytes).
    Removing bsp.o(i.bsp_init), (172 bytes).
    Removing bsp.o(i.bsp_wakeup_button_disable), (22 bytes).
    Removing bsp.o(i.bsp_wakeup_button_enable), (22 bytes).
    Removing bsp.o(i.button_timer_handler), (14 bytes).
    Removing bsp.o(i.leds_timer_handler), (32 bytes).
    Removing bsp.o(i.nrf_gpio_cfg_sense_set), (50 bytes).
    Removing bsp_btn_ble.o(.rev16_text), (4 bytes).
    Removing bsp_btn_ble.o(.revsh_text), (4 bytes).
    Removing bsp_btn_ble.o(.rrx_text), (6 bytes).
    Removing bsp_btn_ble.o(i.bsp_btn_ble_init), (44 bytes).
    Removing bsp_btn_ble.o(i.bsp_btn_ble_sleep_mode_prepare), (50 bytes).
    Removing bsp_btn_ble.o(i.startup_event_extract), (38 bytes).
    Removing bsp_nfc.o(.rev16_text), (4 bytes).
    Removing bsp_nfc.o(.revsh_text), (4 bytes).
    Removing bsp_nfc.o(.rrx_text), (6 bytes).
    Removing bsp_nfc.o(i.bsp_nfc_btn_deinit), (20 bytes).
    Removing bsp_nfc.o(i.bsp_nfc_btn_init), (20 bytes).
    Removing bsp_nfc.o(i.bsp_nfc_sleep_mode_prepare), (48 bytes).
    Removing ble_advdata.o(.rev16_text), (4 bytes).
    Removing ble_advdata.o(.revsh_text), (4 bytes).
    Removing ble_advdata.o(.rrx_text), (6 bytes).
    Removing ble_advdata.o(i.advdata_check), (18 bytes).
    Removing ble_advdata.o(i.appearance_encode), (82 bytes).
    Removing ble_advdata.o(i.ble_advdata_encode), (364 bytes).
    Removing ble_advdata.o(i.ble_advdata_set), (148 bytes).
    Removing ble_advdata.o(i.ble_device_addr_encode), (118 bytes).
    Removing ble_advdata.o(i.conn_int_check), (90 bytes).
    Removing ble_advdata.o(i.conn_int_encode), (104 bytes).
    Removing ble_advdata.o(i.flags_encode), (54 bytes).
    Removing ble_advdata.o(i.manuf_specific_data_encode), (118 bytes).
    Removing ble_advdata.o(i.name_encode), (194 bytes).
    Removing ble_advdata.o(i.service_data_encode), (150 bytes).
    Removing ble_advdata.o(i.srdata_check), (14 bytes).
    Removing ble_advdata.o(i.tx_power_level_encode), (54 bytes).
    Removing ble_advdata.o(i.uint16_encode), (12 bytes).
    Removing ble_advdata.o(i.uuid_list_encode), (78 bytes).
    Removing ble_advdata.o(i.uuid_list_sized_encode), (220 bytes).
    Removing ble_advertising.o(.rev16_text), (4 bytes).
    Removing ble_advertising.o(.revsh_text), (4 bytes).
    Removing ble_advertising.o(.rrx_text), (6 bytes).
    Removing ble_advertising.o(i.addr_is_valid), (24 bytes).
    Removing ble_advertising.o(i.adv_mode_next_avail_get), (82 bytes).
    Removing ble_advertising.o(i.adv_mode_next_get), (18 bytes).
    Removing ble_advertising.o(i.ble_advertising_conn_cfg_tag_set), (6 bytes).
    Removing ble_advertising.o(i.ble_advertising_init), (322 bytes).
    Removing ble_advertising.o(i.ble_advertising_modes_config_set), (18 bytes).
    Removing ble_advertising.o(i.ble_advertising_on_ble_evt), (60 bytes).
    Removing ble_advertising.o(i.ble_advertising_on_sys_evt), (68 bytes).
    Removing ble_advertising.o(i.ble_advertising_peer_addr_reply), (36 bytes).
    Removing ble_advertising.o(i.ble_advertising_restart_without_whitelist), (72 bytes).
    Removing ble_advertising.o(i.ble_advertising_start), (296 bytes).
    Removing ble_advertising.o(i.ble_advertising_whitelist_reply), (40 bytes).
    Removing ble_advertising.o(i.flash_access_in_progress), (10 bytes).
    Removing ble_advertising.o(i.on_connected), (14 bytes).
    Removing ble_advertising.o(i.on_disconnected), (54 bytes).
    Removing ble_advertising.o(i.on_timeout), (54 bytes).
    Removing ble_advertising.o(i.set_adv_mode_directed), (24 bytes).
    Removing ble_advertising.o(i.set_adv_mode_directed_slow), (28 bytes).
    Removing ble_advertising.o(i.set_adv_mode_fast), (74 bytes).
    Removing ble_advertising.o(i.set_adv_mode_slow), (74 bytes).
    Removing ble_advertising.o(i.whitelist_has_entries), (8 bytes).
    Removing ble_conn_state.o(.rev16_text), (4 bytes).
    Removing ble_conn_state.o(.revsh_text), (4 bytes).
    Removing ble_conn_state.o(.rrx_text), (6 bytes).
    Removing ble_conn_state.o(i.ble_conn_state_central_handles), (32 bytes).
    Removing ble_conn_state.o(i.ble_conn_state_conn_handles), (24 bytes).
    Removing ble_conn_state.o(i.ble_conn_state_conn_idx), (36 bytes).
    Removing ble_conn_state.o(i.ble_conn_state_encrypted), (24 bytes).
    Removing ble_conn_state.o(i.ble_conn_state_mitm_protected), (24 bytes).
    Removing ble_conn_state.o(i.ble_conn_state_n_connections), (16 bytes).
    Removing ble_conn_state.o(i.ble_conn_state_n_peripherals), (24 bytes).
    Removing ble_conn_state.o(i.ble_conn_state_periph_handles), (32 bytes).
    Removing ble_conn_state.o(i.ble_conn_state_role), (56 bytes).
    Removing ble_conn_state.o(i.ble_conn_state_status), (60 bytes).
    Removing ble_conn_state.o(i.ble_conn_state_user_flag_acquire), (36 bytes).
    Removing ble_conn_state.o(i.ble_conn_state_user_flag_collection), (28 bytes).
    Removing ble_conn_state.o(i.ble_conn_state_user_flag_get), (40 bytes).
    Removing ble_conn_state.o(i.ble_conn_state_user_flag_set), (40 bytes).
    Removing ble_conn_state.o(i.ble_conn_state_valid), (24 bytes).
    Removing ble_conn_state.o(i.user_flag_acquire), (20 bytes).
    Removing ble_conn_state.o(i.user_flag_is_acquired), (28 bytes).
    Removing ble_db_discovery.o(.rev16_text), (4 bytes).
    Removing ble_db_discovery.o(.revsh_text), (4 bytes).
    Removing ble_db_discovery.o(.rrx_text), (6 bytes).
    Removing ble_db_discovery.o(i.ble_db_discovery_close), (28 bytes).
    Removing ble_srv_common.o(.rev16_text), (4 bytes).
    Removing ble_srv_common.o(.revsh_text), (4 bytes).
    Removing ble_srv_common.o(.rrx_text), (6 bytes).
    Removing ble_srv_common.o(i.ble_srv_ascii_to_utf8), (18 bytes).
    Removing ble_srv_common.o(i.ble_srv_is_indication_enabled), (18 bytes).
    Removing ble_srv_common.o(i.ble_srv_is_notification_enabled), (18 bytes).
    Removing ble_srv_common.o(i.ble_srv_report_ref_encode), (60 bytes).
    Removing ble_srv_common.o(i.characteristic_add), (456 bytes).
    Removing ble_srv_common.o(i.descriptor_add), (190 bytes).
    Removing ble_srv_common.o(i.set_security_req), (190 bytes).
    Removing ble_srv_common.o(i.uint16_decode), (12 bytes).
    Removing nrf_ble_gatt.o(.rev16_text), (4 bytes).
    Removing nrf_ble_gatt.o(.revsh_text), (4 bytes).
    Removing nrf_ble_gatt.o(.rrx_text), (6 bytes).
    Removing nrf_ble_gatt.o(i.nrf_ble_gatt_att_mtu_central_set), (28 bytes).
    Removing nrf_ble_gatt.o(i.nrf_ble_gatt_att_mtu_periph_set), (28 bytes).
    Removing nrf_ble_gatt.o(i.nrf_ble_gatt_data_length_get), (48 bytes).
    Removing nrf_ble_gatt.o(i.nrf_ble_gatt_data_length_set), (86 bytes).
    Removing nrf_ble_gatt.o(i.nrf_ble_gatt_eff_mtu_get), (22 bytes).
    Removing ble_lbs_c.o(.rev16_text), (4 bytes).
    Removing ble_lbs_c.o(.revsh_text), (4 bytes).
    Removing ble_lbs_c.o(.rrx_text), (6 bytes).
    Removing ble_nus_c.o(.rev16_text), (4 bytes).
    Removing ble_nus_c.o(.revsh_text), (4 bytes).
    Removing ble_nus_c.o(.rrx_text), (6 bytes).
    Removing nrf_drv_clock.o(.rev16_text), (4 bytes).
    Removing nrf_drv_clock.o(.revsh_text), (4 bytes).
    Removing nrf_drv_clock.o(.rrx_text), (6 bytes).
    Removing nrf_drv_clock.o(i.hfclk_start), (36 bytes).
    Removing nrf_drv_clock.o(i.hfclk_stop), (44 bytes).
    Removing nrf_drv_clock.o(i.item_enqueue), (34 bytes).
    Removing nrf_drv_clock.o(i.lfclk_start), (24 bytes).
    Removing nrf_drv_clock.o(i.nrf_clock_hf_is_running), (32 bytes).
    Removing nrf_drv_clock.o(i.nrf_clock_int_enable), (12 bytes).
    Removing nrf_drv_clock.o(i.nrf_drv_clock_calibration_abort), (6 bytes).
    Removing nrf_drv_clock.o(i.nrf_drv_clock_calibration_start), (8 bytes).
    Removing nrf_drv_clock.o(i.nrf_drv_clock_hfclk_is_running), (32 bytes).
    Removing nrf_drv_clock.o(i.nrf_drv_clock_hfclk_release), (48 bytes).
    Removing nrf_drv_clock.o(i.nrf_drv_clock_hfclk_request), (108 bytes).
    Removing nrf_drv_clock.o(i.nrf_drv_clock_init_check), (12 bytes).
    Removing nrf_drv_clock.o(i.nrf_drv_clock_is_calibrating), (8 bytes).
    Removing nrf_drv_clock.o(i.nrf_drv_clock_lfclk_is_running), (18 bytes).
    Removing nrf_drv_clock.o(i.nrf_drv_clock_lfclk_request), (108 bytes).
    Removing nrf_drv_clock.o(i.nrf_drv_clock_uninit), (36 bytes).
    Removing nrf_drv_clock.o(.constdata), (112 bytes).
    Removing nrf_drv_common.o(.rev16_text), (4 bytes).
    Removing nrf_drv_common.o(.revsh_text), (4 bytes).
    Removing nrf_drv_common.o(.rrx_text), (6 bytes).
    Removing nrf_drv_common.o(i.nrf_drv_common_clock_irq_disable), (28 bytes).
    Removing nrf_drv_gpiote.o(.rev16_text), (4 bytes).
    Removing nrf_drv_gpiote.o(.revsh_text), (4 bytes).
    Removing nrf_drv_gpiote.o(.rrx_text), (6 bytes).
    Removing nrf_drv_gpiote.o(i.nrf_drv_gpiote_clr_task_addr_get), (24 bytes).
    Removing nrf_drv_gpiote.o(i.nrf_drv_gpiote_clr_task_trigger), (32 bytes).
    Removing nrf_drv_gpiote.o(i.nrf_drv_gpiote_in_event_addr_get), (38 bytes).
    Removing nrf_drv_gpiote.o(i.nrf_drv_gpiote_in_event_enable), (172 bytes).
    Removing nrf_drv_gpiote.o(i.nrf_drv_gpiote_in_uninit), (58 bytes).
    Removing nrf_drv_gpiote.o(i.nrf_drv_gpiote_out_clear), (12 bytes).
    Removing nrf_drv_gpiote.o(i.nrf_drv_gpiote_out_init), (204 bytes).
    Removing nrf_drv_gpiote.o(i.nrf_drv_gpiote_out_set), (12 bytes).
    Removing nrf_drv_gpiote.o(i.nrf_drv_gpiote_out_task_addr_get), (22 bytes).
    Removing nrf_drv_gpiote.o(i.nrf_drv_gpiote_out_task_disable), (36 bytes).
    Removing nrf_drv_gpiote.o(i.nrf_drv_gpiote_out_task_enable), (44 bytes).
    Removing nrf_drv_gpiote.o(i.nrf_drv_gpiote_out_task_force), (48 bytes).
    Removing nrf_drv_gpiote.o(i.nrf_drv_gpiote_out_task_trigger), (32 bytes).
    Removing nrf_drv_gpiote.o(i.nrf_drv_gpiote_out_toggle), (38 bytes).
    Removing nrf_drv_gpiote.o(i.nrf_drv_gpiote_out_uninit), (52 bytes).
    Removing nrf_drv_gpiote.o(i.nrf_drv_gpiote_set_task_addr_get), (24 bytes).
    Removing nrf_drv_gpiote.o(i.nrf_drv_gpiote_set_task_trigger), (32 bytes).
    Removing nrf_drv_gpiote.o(i.nrf_drv_gpiote_uninit), (68 bytes).
    Removing nrf_drv_gpiote.o(i.nrf_gpio_cfg_default), (24 bytes).
    Removing nrf_drv_gpiote.o(i.nrf_gpio_pin_clear), (22 bytes).
    Removing nrf_drv_gpiote.o(i.nrf_gpio_pin_set), (22 bytes).
    Removing nrf_drv_gpiote.o(i.nrf_gpiote_task_addr_get), (12 bytes).
    Removing nrf_drv_gpiote.o(i.nrf_gpiote_te_default), (16 bytes).
    Removing nrf_drv_uart.o(.rev16_text), (4 bytes).
    Removing nrf_drv_uart.o(.revsh_text), (4 bytes).
    Removing nrf_drv_uart.o(.rrx_text), (6 bytes).
    Removing nrf_drv_uart.o(i.nrf_drv_common_irq_disable), (28 bytes).
    Removing nrf_drv_uart.o(i.nrf_drv_uart_errorsrc_get), (64 bytes).
    Removing nrf_drv_uart.o(i.nrf_drv_uart_rx_abort), (52 bytes).
    Removing nrf_drv_uart.o(i.nrf_drv_uart_rx_disable), (44 bytes).
    Removing nrf_drv_uart.o(i.nrf_drv_uart_rx_ready), (44 bytes).
    Removing nrf_drv_uart.o(i.nrf_drv_uart_tx_abort), (100 bytes).
    Removing nrf_drv_uart.o(i.nrf_drv_uart_uninit), (140 bytes).
    Removing nrf_drv_uart.o(i.nrf_gpio_cfg_default), (24 bytes).
    Removing nrf_drv_uart.o(i.pins_to_default), (212 bytes).
    Removing app_button.o(.rev16_text), (4 bytes).
    Removing app_button.o(.revsh_text), (4 bytes).
    Removing app_button.o(.rrx_text), (6 bytes).
    Removing app_button.o(i.app_button_enable), (44 bytes).
    Removing app_button.o(i.app_button_is_pushed), (44 bytes).
    Removing app_error.o(.rev16_text), (4 bytes).
    Removing app_error.o(.revsh_text), (4 bytes).
    Removing app_error.o(.rrx_text), (6 bytes).
    Removing app_error.o(i.app_error_handler), (32 bytes).
    Removing app_error.o(i.app_error_save_and_stop), (136 bytes).
    Removing app_error.o(.bss), (32 bytes).
    Removing app_error_weak.o(.rev16_text), (4 bytes).
    Removing app_error_weak.o(.revsh_text), (4 bytes).
    Removing app_error_weak.o(.rrx_text), (6 bytes).
    Removing app_scheduler.o(.rev16_text), (4 bytes).
    Removing app_scheduler.o(.revsh_text), (4 bytes).
    Removing app_scheduler.o(.rrx_text), (6 bytes).
    Removing app_scheduler.o(i.app_sched_event_put), (184 bytes).
    Removing app_scheduler.o(i.app_sched_execute), (116 bytes).
    Removing app_scheduler.o(i.app_sched_init), (92 bytes).
    Removing app_scheduler.o(i.app_sched_queue_space_get), (52 bytes).
    Removing app_scheduler.o(i.next_index), (24 bytes).
    Removing app_scheduler.o(.data), (14 bytes).
    Removing app_timer.o(.rev16_text), (4 bytes).
    Removing app_timer.o(.revsh_text), (4 bytes).
    Removing app_timer.o(.rrx_text), (6 bytes).
    Removing app_timer.o(i.app_timer_cnt_diff_compute), (16 bytes).
    Removing app_timer.o(i.app_timer_cnt_get), (8 bytes).
    Removing app_timer.o(i.app_timer_pause), (12 bytes).
    Removing app_timer.o(i.app_timer_resume), (12 bytes).
    Removing app_timer.o(i.app_timer_stop_all), (32 bytes).
    Removing app_util_platform.o(.rev16_text), (4 bytes).
    Removing app_util_platform.o(.revsh_text), (4 bytes).
    Removing app_util_platform.o(.rrx_text), (6 bytes).
    Removing app_util_platform.o(i.app_util_disable_irq), (20 bytes).
    Removing app_util_platform.o(i.app_util_enable_irq), (24 bytes).
    Removing app_util_platform.o(i.current_int_priority_get), (60 bytes).
    Removing app_util_platform.o(i.privilege_level_get), (34 bytes).
    Removing app_util_platform.o(.data), (4 bytes).
    Removing hardfault_implementation.o(.rev16_text), (4 bytes).
    Removing hardfault_implementation.o(.revsh_text), (4 bytes).
    Removing hardfault_implementation.o(.rrx_text), (6 bytes).
    Removing nrf_assert.o(.rev16_text), (4 bytes).
    Removing nrf_assert.o(.revsh_text), (4 bytes).
    Removing nrf_assert.o(.rrx_text), (6 bytes).
    Removing nrf_assert.o(i.assert_nrf_callback), (26 bytes).
    Removing nrf_atfifo.o(.rev16_text), (4 bytes).
    Removing nrf_atfifo.o(.revsh_text), (4 bytes).
    Removing nrf_atfifo.o(.rrx_text), (6 bytes).
    Removing nrf_atfifo.o(i.nrf_atfifo_alloc_put), (58 bytes).
    Removing nrf_atfifo.o(i.nrf_atfifo_get_free), (58 bytes).
    Removing nrf_balloc.o(.rev16_text), (4 bytes).
    Removing nrf_balloc.o(.revsh_text), (4 bytes).
    Removing nrf_balloc.o(.rrx_text), (6 bytes).
    Removing nrf_balloc.o(i.nrf_balloc_alloc), (82 bytes).
    Removing nrf_balloc.o(i.nrf_balloc_block2idx), (16 bytes).
    Removing nrf_balloc.o(i.nrf_balloc_free), (48 bytes).
    Removing nrf_balloc.o(i.nrf_balloc_idx2block), (12 bytes).
    Removing nrf_balloc.o(i.nrf_balloc_init), (60 bytes).
    Removing nrf_fprintf.o(.rev16_text), (4 bytes).
    Removing nrf_fprintf.o(.revsh_text), (4 bytes).
    Removing nrf_fprintf.o(.rrx_text), (6 bytes).
    Removing nrf_fprintf.o(i.nrf_fprintf), (42 bytes).
    Removing nrf_fprintf.o(i.nrf_fprintf_buffer_flush), (28 bytes).
    Removing nrf_fprintf_format.o(.rev16_text), (4 bytes).
    Removing nrf_fprintf_format.o(.revsh_text), (4 bytes).
    Removing nrf_fprintf_format.o(.rrx_text), (6 bytes).
    Removing nrf_fprintf_format.o(i.buffer_add), (32 bytes).
    Removing nrf_fprintf_format.o(i.int_print), (190 bytes).
    Removing nrf_fprintf_format.o(i.nrf_fprintf_fmt), (496 bytes).
    Removing nrf_fprintf_format.o(i.string_print), (116 bytes).
    Removing nrf_fprintf_format.o(i.unsigned_print), (184 bytes).
    Removing nrf_fprintf_format.o(.constdata), (16 bytes).
    Removing nrf_fstorage.o(i.addr_is_aligned32), (16 bytes).
    Removing nrf_fstorage.o(i.addr_within_bounds), (28 bytes).
    Removing nrf_fstorage.o(i.nrf_fstorage_erase), (84 bytes).
    Removing nrf_fstorage.o(i.nrf_fstorage_init), (30 bytes).
    Removing nrf_fstorage.o(i.nrf_fstorage_is_busy), (84 bytes).
    Removing nrf_fstorage.o(i.nrf_fstorage_read), (78 bytes).
    Removing nrf_fstorage.o(i.nrf_fstorage_rmap), (24 bytes).
    Removing nrf_fstorage.o(i.nrf_fstorage_uninit), (42 bytes).
    Removing nrf_fstorage.o(i.nrf_fstorage_wmap), (24 bytes).
    Removing nrf_fstorage.o(i.nrf_fstorage_write), (108 bytes).
    Removing nrf_fstorage_sd.o(.rev16_text), (4 bytes).
    Removing nrf_fstorage_sd.o(.revsh_text), (4 bytes).
    Removing nrf_fstorage_sd.o(.rrx_text), (6 bytes).
    Removing nrf_memobj.o(.rev16_text), (4 bytes).
    Removing nrf_memobj.o(.revsh_text), (4 bytes).
    Removing nrf_memobj.o(.rrx_text), (6 bytes).
    Removing nrf_memobj.o(.emb_text), (154 bytes).
    Removing nrf_memobj.o(i.memobj_op), (174 bytes).
    Removing nrf_memobj.o(i.nrf_memobj_alloc), (122 bytes).
    Removing nrf_memobj.o(i.nrf_memobj_free), (64 bytes).
    Removing nrf_memobj.o(i.nrf_memobj_get), (30 bytes).
    Removing nrf_memobj.o(i.nrf_memobj_pool_init), (12 bytes).
    Removing nrf_memobj.o(i.nrf_memobj_put), (48 bytes).
    Removing nrf_memobj.o(i.nrf_memobj_read), (28 bytes).
    Removing nrf_memobj.o(i.nrf_memobj_write), (28 bytes).
    Removing nrf_section_iter.o(.rev16_text), (4 bytes).
    Removing nrf_section_iter.o(.revsh_text), (4 bytes).
    Removing nrf_section_iter.o(.rrx_text), (6 bytes).
    Removing nrf_strerror.o(.rev16_text), (4 bytes).
    Removing nrf_strerror.o(.revsh_text), (4 bytes).
    Removing nrf_strerror.o(.rrx_text), (6 bytes).
    Removing nrf_strerror.o(i.nrf_strerror_find), (64 bytes).
    Removing nrf_strerror.o(i.nrf_strerror_get), (28 bytes).
    Removing nrf_strerror.o(.constdata), (260 bytes).
    Removing nrf_strerror.o(.conststring), (776 bytes).
    Removing sdk_mapped_flags.o(.rev16_text), (4 bytes).
    Removing sdk_mapped_flags.o(.revsh_text), (4 bytes).
    Removing sdk_mapped_flags.o(.rrx_text), (6 bytes).
    Removing sdk_mapped_flags.o(i.sdk_mapped_flags_get_by_key), (46 bytes).
    Removing sdk_mapped_flags.o(i.sdk_mapped_flags_get_by_key_w_idx), (58 bytes).
    Removing app_uart_fifo.o(.rev16_text), (4 bytes).
    Removing app_uart_fifo.o(.revsh_text), (4 bytes).
    Removing app_uart_fifo.o(.rrx_text), (6 bytes).
    Removing app_uart_fifo.o(i.app_uart_close), (16 bytes).
    Removing app_uart_fifo.o(i.app_uart_flush), (52 bytes).
    Removing app_fifo.o(.rev16_text), (4 bytes).
    Removing app_fifo.o(.revsh_text), (4 bytes).
    Removing app_fifo.o(.rrx_text), (6 bytes).
    Removing app_fifo.o(i.app_fifo_flush), (10 bytes).
    Removing app_fifo.o(i.app_fifo_peek), (36 bytes).
    Removing app_fifo.o(i.app_fifo_read), (102 bytes).
    Removing app_fifo.o(i.app_fifo_write), (106 bytes).
    Removing nrf_log_backend_rtt.o(.rev16_text), (4 bytes).
    Removing nrf_log_backend_rtt.o(.revsh_text), (4 bytes).
    Removing nrf_log_backend_rtt.o(.rrx_text), (6 bytes).
    Removing nrf_log_backend_serial.o(.rev16_text), (4 bytes).
    Removing nrf_log_backend_serial.o(.revsh_text), (4 bytes).
    Removing nrf_log_backend_serial.o(.rrx_text), (6 bytes).
    Removing nrf_log_backend_uart.o(.rev16_text), (4 bytes).
    Removing nrf_log_backend_uart.o(.revsh_text), (4 bytes).
    Removing nrf_log_backend_uart.o(.rrx_text), (6 bytes).
    Removing nrf_log_default_backends.o(.rev16_text), (4 bytes).
    Removing nrf_log_default_backends.o(.revsh_text), (4 bytes).
    Removing nrf_log_default_backends.o(.rrx_text), (6 bytes).
    Removing nrf_log_frontend.o(.rev16_text), (4 bytes).
    Removing nrf_log_frontend.o(.revsh_text), (4 bytes).
    Removing nrf_log_frontend.o(.rrx_text), (6 bytes).
    Removing nrf_log_str_formatter.o(.rev16_text), (4 bytes).
    Removing nrf_log_str_formatter.o(.revsh_text), (4 bytes).
    Removing nrf_log_str_formatter.o(.rrx_text), (6 bytes).
    Removing segger_rtt.o(.rev16_text), (4 bytes).
    Removing segger_rtt.o(.revsh_text), (4 bytes).
    Removing segger_rtt.o(.rrx_text), (6 bytes).
    Removing segger_rtt.o(i.SEGGER_RTT_AllocDownBuffer), (184 bytes).
    Removing segger_rtt.o(i.SEGGER_RTT_AllocUpBuffer), (184 bytes).
    Removing segger_rtt.o(i.SEGGER_RTT_ConfigDownBuffer), (160 bytes).
    Removing segger_rtt.o(i.SEGGER_RTT_ConfigUpBuffer), (160 bytes).
    Removing segger_rtt.o(i.SEGGER_RTT_GetKey), (32 bytes).
    Removing segger_rtt.o(i.SEGGER_RTT_HasData), (28 bytes).
    Removing segger_rtt.o(i.SEGGER_RTT_HasKey), (40 bytes).
    Removing segger_rtt.o(i.SEGGER_RTT_Init), (8 bytes).
    Removing segger_rtt.o(i.SEGGER_RTT_PutChar), (112 bytes).
    Removing segger_rtt.o(i.SEGGER_RTT_PutCharSkip), (96 bytes).
    Removing segger_rtt.o(i.SEGGER_RTT_PutCharSkipNoLock), (56 bytes).
    Removing segger_rtt.o(i.SEGGER_RTT_Read), (42 bytes).
    Removing segger_rtt.o(i.SEGGER_RTT_ReadNoLock), (152 bytes).
    Removing segger_rtt.o(i.SEGGER_RTT_SetFlagsDownBuffer), (76 bytes).
    Removing segger_rtt.o(i.SEGGER_RTT_SetFlagsUpBuffer), (76 bytes).
    Removing segger_rtt.o(i.SEGGER_RTT_SetNameDownBuffer), (76 bytes).
    Removing segger_rtt.o(i.SEGGER_RTT_SetNameUpBuffer), (76 bytes).
    Removing segger_rtt.o(i.SEGGER_RTT_SetTerminal), (144 bytes).
    Removing segger_rtt.o(i.SEGGER_RTT_TerminalOut), (244 bytes).
    Removing segger_rtt.o(i.SEGGER_RTT_WaitKey), (14 bytes).
    Removing segger_rtt.o(i.SEGGER_RTT_Write), (60 bytes).
    Removing segger_rtt.o(i.SEGGER_RTT_WriteNoLock), (132 bytes).
    Removing segger_rtt.o(i.SEGGER_RTT_WriteSkipNoLock), (176 bytes).
    Removing segger_rtt.o(i.SEGGER_RTT_WriteString), (26 bytes).
    Removing segger_rtt.o(i.SEGGER_RTT_WriteWithOverwriteNoLock), (172 bytes).
    Removing segger_rtt.o(i._DoInit), (112 bytes).
    Removing segger_rtt.o(i._GetAvailWriteSpace), (28 bytes).
    Removing segger_rtt.o(i._PostTerminalSwitch), (36 bytes).
    Removing segger_rtt.o(i._WriteBlocking), (114 bytes).
    Removing segger_rtt.o(i._WriteNoCheck), (76 bytes).
    Removing segger_rtt.o(.bss), (648 bytes).
    Removing segger_rtt.o(.data), (17 bytes).
    Removing segger_rtt_syscalls_keil.o(.rev16_text), (4 bytes).
    Removing segger_rtt_syscalls_keil.o(.revsh_text), (4 bytes).
    Removing segger_rtt_syscalls_keil.o(.rrx_text), (6 bytes).
    Removing segger_rtt_syscalls_keil.o(i._sys_close), (6 bytes).
    Removing segger_rtt_syscalls_keil.o(i._sys_command_string), (2 bytes).
    Removing segger_rtt_syscalls_keil.o(i._sys_ensure), (8 bytes).
    Removing segger_rtt_syscalls_keil.o(i._sys_exit), (4 bytes).
    Removing segger_rtt_syscalls_keil.o(i._sys_flen), (6 bytes).
    Removing segger_rtt_syscalls_keil.o(i._sys_istty), (16 bytes).
    Removing segger_rtt_syscalls_keil.o(i._sys_open), (52 bytes).
    Removing segger_rtt_syscalls_keil.o(i._sys_read), (8 bytes).
    Removing segger_rtt_syscalls_keil.o(i._sys_seek), (6 bytes).
    Removing segger_rtt_syscalls_keil.o(i._sys_tmpnam), (6 bytes).
    Removing segger_rtt_syscalls_keil.o(i._sys_write), (42 bytes).
    Removing segger_rtt_syscalls_keil.o(i._ttywrch), (24 bytes).
    Removing segger_rtt_syscalls_keil.o(.constdata), (14 bytes).
    Removing segger_rtt_printf.o(.rev16_text), (4 bytes).
    Removing segger_rtt_printf.o(.revsh_text), (4 bytes).
    Removing segger_rtt_printf.o(.rrx_text), (6 bytes).
    Removing segger_rtt_printf.o(i.SEGGER_RTT_printf), (34 bytes).
    Removing segger_rtt_printf.o(i.SEGGER_RTT_vprintf), (522 bytes).
    Removing segger_rtt_printf.o(i._PrintInt), (236 bytes).
    Removing segger_rtt_printf.o(i._PrintUnsigned), (236 bytes).
    Removing segger_rtt_printf.o(i._StoreChar), (68 bytes).
    Removing segger_rtt_printf.o(.constdata), (16 bytes).
    Removing nrf_sdh.o(.rev16_text), (4 bytes).
    Removing nrf_sdh.o(.revsh_text), (4 bytes).
    Removing nrf_sdh.o(.rrx_text), (6 bytes).
    Removing nrf_sdh.o(i.nrf_sdh_is_suspended), (28 bytes).
    Removing nrf_sdh.o(i.nrf_sdh_resume), (100 bytes).
    Removing nrf_sdh.o(i.nrf_sdh_suspend), (32 bytes).
    Removing nrf_sdh_ble.o(.rev16_text), (4 bytes).
    Removing nrf_sdh_ble.o(.revsh_text), (4 bytes).
    Removing nrf_sdh_ble.o(.rrx_text), (6 bytes).
    Removing nrf_sdh_ble.o(i.ram_end_address_get), (16 bytes).
    Removing nrf_sdh_soc.o(.rev16_text), (4 bytes).
    Removing nrf_sdh_soc.o(.revsh_text), (4 bytes).
    Removing nrf_sdh_soc.o(.rrx_text), (6 bytes).
    Removing arm_startup_nrf52.o(HEAP), (0 bytes).
    Removing system_nrf52.o(.rev16_text), (4 bytes).
    Removing system_nrf52.o(.revsh_text), (4 bytes).
    Removing system_nrf52.o(.rrx_text), (6 bytes).

411 unused section(s) (total 19065 bytes) removed from the image.

==============================================================================

Image Symbol Table

    Local Symbols

    Symbol Name                              Value     Ov Type        Size  Object(Section)

    ../clib/../cmprslib/zerorunl.c           0x00000000   Number         0  __dczerorl.o ABSOLUTE
    ../clib/microlib/division.c              0x00000000   Number         0  uldiv.o ABSOLUTE
    ../clib/microlib/init/entry.s            0x00000000   Number         0  entry9b.o ABSOLUTE
    ../clib/microlib/init/entry.s            0x00000000   Number         0  entry9a.o ABSOLUTE
    ../clib/microlib/init/entry.s            0x00000000   Number         0  entry8b.o ABSOLUTE
    ../clib/microlib/init/entry.s            0x00000000   Number         0  entry8a.o ABSOLUTE
    ../clib/microlib/init/entry.s            0x00000000   Number         0  entry7b.o ABSOLUTE
    ../clib/microlib/init/entry.s            0x00000000   Number         0  entry10a.o ABSOLUTE
    ../clib/microlib/init/entry.s            0x00000000   Number         0  entry10b.o ABSOLUTE
    ../clib/microlib/init/entry.s            0x00000000   Number         0  entry11a.o ABSOLUTE
    ../clib/microlib/init/entry.s            0x00000000   Number         0  entry.o ABSOLUTE
    ../clib/microlib/init/entry.s            0x00000000   Number         0  entry11b.o ABSOLUTE
    ../clib/microlib/init/entry.s            0x00000000   Number         0  entry2.o ABSOLUTE
    ../clib/microlib/init/entry.s            0x00000000   Number         0  entry5.o ABSOLUTE
    ../clib/microlib/init/entry.s            0x00000000   Number         0  entry7a.o ABSOLUTE
    ../clib/microlib/longlong.c              0x00000000   Number         0  llshl.o ABSOLUTE
    ../clib/microlib/longlong.c              0x00000000   Number         0  llushr.o ABSOLUTE
    ../clib/microlib/stdio/fflush.c          0x00000000   Number         0  fflush.o ABSOLUTE
    ../clib/microlib/stdio/fputc.c           0x00000000   Number         0  fputc.o ABSOLUTE
    ../clib/microlib/stdio/semi.s            0x00000000   Number         0  semi.o ABSOLUTE
    ../clib/microlib/stdio/streams.c         0x00000000   Number         0  stdout.o ABSOLUTE
    ../clib/microlib/string/memcmp.c         0x00000000   Number         0  memcmp.o ABSOLUTE
    ../clib/microlib/string/memcpy.c         0x00000000   Number         0  memcpyb.o ABSOLUTE
    ../clib/microlib/string/memcpy.c         0x00000000   Number         0  memcpya.o ABSOLUTE
    ../clib/microlib/string/memset.c         0x00000000   Number         0  memseta.o ABSOLUTE
    ../clib/microlib/string/strcmp.c         0x00000000   Number         0  strcmp.o ABSOLUTE
    ../clib/microlib/string/strcpy.c         0x00000000   Number         0  strcpy.o ABSOLUTE
    ../clib/microlib/string/strlen.c         0x00000000   Number         0  strlen.o ABSOLUTE
    ../clib/microlib/stubs.s                 0x00000000   Number         0  iusesemip.o ABSOLUTE
    ..\..\..\..\..\..\components\ble\ble_advertising\ble_advertising.c 0x00000000   Number         0  ble_advertising.o ABSOLUTE
    ..\..\..\..\..\..\components\ble\ble_db_discovery\ble_db_discovery.c 0x00000000   Number         0  ble_db_discovery.o ABSOLUTE
    ..\..\..\..\..\..\components\ble\ble_services\ble_lbs_c\ble_lbs_c.c 0x00000000   Number         0  ble_lbs_c.o ABSOLUTE
    ..\..\..\..\..\..\components\ble\ble_services\ble_nus_c\ble_nus_c.c 0x00000000   Number         0  ble_nus_c.o ABSOLUTE
    ..\..\..\..\..\..\components\ble\common\ble_advdata.c 0x00000000   Number         0  ble_advdata.o ABSOLUTE
    ..\..\..\..\..\..\components\ble\common\ble_conn_state.c 0x00000000   Number         0  ble_conn_state.o ABSOLUTE
    ..\..\..\..\..\..\components\ble\common\ble_srv_common.c 0x00000000   Number         0  ble_srv_common.o ABSOLUTE
    ..\..\..\..\..\..\components\ble\nrf_ble_gatt\nrf_ble_gatt.c 0x00000000   Number         0  nrf_ble_gatt.o ABSOLUTE
    ..\..\..\..\..\..\components\boards\boards.c 0x00000000   Number         0  boards.o ABSOLUTE
    ..\..\..\..\..\..\components\drivers_nrf\clock\nrf_drv_clock.c 0x00000000   Number         0  nrf_drv_clock.o ABSOLUTE
    ..\..\..\..\..\..\components\drivers_nrf\common\nrf_drv_common.c 0x00000000   Number         0  nrf_drv_common.o ABSOLUTE
    ..\..\..\..\..\..\components\drivers_nrf\gpiote\nrf_drv_gpiote.c 0x00000000   Number         0  nrf_drv_gpiote.o ABSOLUTE
    ..\..\..\..\..\..\components\drivers_nrf\uart\nrf_drv_uart.c 0x00000000   Number         0  nrf_drv_uart.o ABSOLUTE
    ..\..\..\..\..\..\components\libraries\atomic_fifo\nrf_atfifo.c 0x00000000   Number         0  nrf_atfifo.o ABSOLUTE
    ..\..\..\..\..\..\components\libraries\balloc\nrf_balloc.c 0x00000000   Number         0  nrf_balloc.o ABSOLUTE
    ..\..\..\..\..\..\components\libraries\bsp\bsp.c 0x00000000   Number         0  bsp.o ABSOLUTE
    ..\..\..\..\..\..\components\libraries\bsp\bsp_btn_ble.c 0x00000000   Number         0  bsp_btn_ble.o ABSOLUTE
    ..\..\..\..\..\..\components\libraries\bsp\bsp_nfc.c 0x00000000   Number         0  bsp_nfc.o ABSOLUTE
    ..\..\..\..\..\..\components\libraries\button\app_button.c 0x00000000   Number         0  app_button.o ABSOLUTE
    ..\..\..\..\..\..\components\libraries\experimental_log\src\nrf_log_backend_rtt.c 0x00000000   Number         0  nrf_log_backend_rtt.o ABSOLUTE
    ..\..\..\..\..\..\components\libraries\experimental_log\src\nrf_log_backend_serial.c 0x00000000   Number         0  nrf_log_backend_serial.o ABSOLUTE
    ..\..\..\..\..\..\components\libraries\experimental_log\src\nrf_log_backend_uart.c 0x00000000   Number         0  nrf_log_backend_uart.o ABSOLUTE
    ..\..\..\..\..\..\components\libraries\experimental_log\src\nrf_log_default_backends.c 0x00000000   Number         0  nrf_log_default_backends.o ABSOLUTE
    ..\..\..\..\..\..\components\libraries\experimental_log\src\nrf_log_frontend.c 0x00000000   Number         0  nrf_log_frontend.o ABSOLUTE
    ..\..\..\..\..\..\components\libraries\experimental_log\src\nrf_log_str_formatter.c 0x00000000   Number         0  nrf_log_str_formatter.o ABSOLUTE
    ..\..\..\..\..\..\components\libraries\experimental_memobj\nrf_memobj.c 0x00000000   Number         0  nrf_memobj.o ABSOLUTE
    ..\..\..\..\..\..\components\libraries\experimental_section_vars\nrf_section_iter.c 0x00000000   Number         0  nrf_section_iter.o ABSOLUTE
    ..\..\..\..\..\..\components\libraries\fifo\app_fifo.c 0x00000000   Number         0  app_fifo.o ABSOLUTE
    ..\..\..\..\..\..\components\libraries\fstorage\nrf_fstorage.c 0x00000000   Number         0  nrf_fstorage.o ABSOLUTE
    ..\..\..\..\..\..\components\libraries\fstorage\nrf_fstorage_sd.c 0x00000000   Number         0  nrf_fstorage_sd.o ABSOLUTE
    ..\..\..\..\..\..\components\libraries\hardfault\hardfault_implementation.c 0x00000000   Number         0  hardfault_implementation.o ABSOLUTE
    ..\..\..\..\..\..\components\libraries\scheduler\app_scheduler.c 0x00000000   Number         0  app_scheduler.o ABSOLUTE
    ..\..\..\..\..\..\components\libraries\strerror\nrf_strerror.c 0x00000000   Number         0  nrf_strerror.o ABSOLUTE
    ..\..\..\..\..\..\components\libraries\timer\app_timer.c 0x00000000   Number         0  app_timer.o ABSOLUTE
    ..\..\..\..\..\..\components\libraries\uart\app_uart_fifo.c 0x00000000   Number         0  app_uart_fifo.o ABSOLUTE
    ..\..\..\..\..\..\components\libraries\util\app_error.c 0x00000000   Number         0  app_error.o ABSOLUTE
    ..\..\..\..\..\..\components\libraries\util\app_error_weak.c 0x00000000   Number         0  app_error_weak.o ABSOLUTE
    ..\..\..\..\..\..\components\libraries\util\app_util_platform.c 0x00000000   Number         0  app_util_platform.o ABSOLUTE
    ..\..\..\..\..\..\components\libraries\util\nrf_assert.c 0x00000000   Number         0  nrf_assert.o ABSOLUTE
    ..\..\..\..\..\..\components\libraries\util\sdk_mapped_flags.c 0x00000000   Number         0  sdk_mapped_flags.o ABSOLUTE
    ..\..\..\..\..\..\components\softdevice\common\nrf_sdh.c 0x00000000   Number         0  nrf_sdh.o ABSOLUTE
    ..\..\..\..\..\..\components\softdevice\common\nrf_sdh_ble.c 0x00000000   Number         0  nrf_sdh_ble.o ABSOLUTE
    ..\..\..\..\..\..\components\softdevice\common\nrf_sdh_soc.c 0x00000000   Number         0  nrf_sdh_soc.o ABSOLUTE
    ..\..\..\..\..\..\external\fprintf\nrf_fprintf.c 0x00000000   Number         0  nrf_fprintf.o ABSOLUTE
    ..\..\..\..\..\..\external\fprintf\nrf_fprintf_format.c 0x00000000   Number         0  nrf_fprintf_format.o ABSOLUTE
    ..\..\..\..\..\..\external\segger_rtt\SEGGER_RTT.c 0x00000000   Number         0  segger_rtt.o ABSOLUTE
    ..\..\..\..\..\..\external\segger_rtt\SEGGER_RTT_Syscalls_KEIL.c 0x00000000   Number         0  segger_rtt_syscalls_keil.o ABSOLUTE
    ..\..\..\..\..\..\external\segger_rtt\SEGGER_RTT_printf.c 0x00000000   Number         0  segger_rtt_printf.o ABSOLUTE
    ..\..\..\main.c                          0x00000000   Number         0  main.o ABSOLUTE
    ..\\..\\..\\..\\..\\..\\components\\ble\\ble_advertising\\ble_advertising.c 0x00000000   Number         0  ble_advertising.o ABSOLUTE
    ..\\..\\..\\..\\..\\..\\components\\ble\\ble_db_discovery\\ble_db_discovery.c 0x00000000   Number         0  ble_db_discovery.o ABSOLUTE
    ..\\..\\..\\..\\..\\..\\components\\ble\\ble_services\\ble_lbs_c\\ble_lbs_c.c 0x00000000   Number         0  ble_lbs_c.o ABSOLUTE
    ..\\..\\..\\..\\..\\..\\components\\ble\\ble_services\\ble_nus_c\\ble_nus_c.c 0x00000000   Number         0  ble_nus_c.o ABSOLUTE
    ..\\..\\..\\..\\..\\..\\components\\ble\\common\\ble_advdata.c 0x00000000   Number         0  ble_advdata.o ABSOLUTE
    ..\\..\\..\\..\\..\\..\\components\\ble\\common\\ble_conn_state.c 0x00000000   Number         0  ble_conn_state.o ABSOLUTE
    ..\\..\\..\\..\\..\\..\\components\\ble\\common\\ble_srv_common.c 0x00000000   Number         0  ble_srv_common.o ABSOLUTE
    ..\\..\\..\\..\\..\\..\\components\\ble\\nrf_ble_gatt\\nrf_ble_gatt.c 0x00000000   Number         0  nrf_ble_gatt.o ABSOLUTE
    ..\\..\\..\\..\\..\\..\\components\\boards\\boards.c 0x00000000   Number         0  boards.o ABSOLUTE
    ..\\..\\..\\..\\..\\..\\components\\drivers_nrf\\clock\\nrf_drv_clock.c 0x00000000   Number         0  nrf_drv_clock.o ABSOLUTE
    ..\\..\\..\\..\\..\\..\\components\\drivers_nrf\\common\\nrf_drv_common.c 0x00000000   Number         0  nrf_drv_common.o ABSOLUTE
    ..\\..\\..\\..\\..\\..\\components\\drivers_nrf\\gpiote\\nrf_drv_gpiote.c 0x00000000   Number         0  nrf_drv_gpiote.o ABSOLUTE
    ..\\..\\..\\..\\..\\..\\components\\drivers_nrf\\uart\\nrf_drv_uart.c 0x00000000   Number         0  nrf_drv_uart.o ABSOLUTE
    ..\\..\\..\\..\\..\\..\\components\\libraries\\atomic_fifo\\nrf_atfifo.c 0x00000000   Number         0  nrf_atfifo.o ABSOLUTE
    ..\\..\\..\\..\\..\\..\\components\\libraries\\balloc\\nrf_balloc.c 0x00000000   Number         0  nrf_balloc.o ABSOLUTE
    ..\\..\\..\\..\\..\\..\\components\\libraries\\bsp\\bsp.c 0x00000000   Number         0  bsp.o ABSOLUTE
    ..\\..\\..\\..\\..\\..\\components\\libraries\\bsp\\bsp_btn_ble.c 0x00000000   Number         0  bsp_btn_ble.o ABSOLUTE
    ..\\..\\..\\..\\..\\..\\components\\libraries\\bsp\\bsp_nfc.c 0x00000000   Number         0  bsp_nfc.o ABSOLUTE
    ..\\..\\..\\..\\..\\..\\components\\libraries\\button\\app_button.c 0x00000000   Number         0  app_button.o ABSOLUTE
    ..\\..\\..\\..\\..\\..\\components\\libraries\\experimental_log\\src\\nrf_log_backend_rtt.c 0x00000000   Number         0  nrf_log_backend_rtt.o ABSOLUTE
    ..\\..\\..\\..\\..\\..\\components\\libraries\\experimental_log\\src\\nrf_log_backend_serial.c 0x00000000   Number         0  nrf_log_backend_serial.o ABSOLUTE
    ..\\..\\..\\..\\..\\..\\components\\libraries\\experimental_log\\src\\nrf_log_backend_uart.c 0x00000000   Number         0  nrf_log_backend_uart.o ABSOLUTE
    ..\\..\\..\\..\\..\\..\\components\\libraries\\experimental_log\\src\\nrf_log_default_backends.c 0x00000000   Number         0  nrf_log_default_backends.o ABSOLUTE
    ..\\..\\..\\..\\..\\..\\components\\libraries\\experimental_log\\src\\nrf_log_frontend.c 0x00000000   Number         0  nrf_log_frontend.o ABSOLUTE
    ..\\..\\..\\..\\..\\..\\components\\libraries\\experimental_log\\src\\nrf_log_str_formatter.c 0x00000000   Number         0  nrf_log_str_formatter.o ABSOLUTE
    ..\\..\\..\\..\\..\\..\\components\\libraries\\experimental_memobj\\nrf_memobj.c 0x00000000   Number         0  nrf_memobj.o ABSOLUTE
    ..\\..\\..\\..\\..\\..\\components\\libraries\\experimental_section_vars\\nrf_section_iter.c 0x00000000   Number         0  nrf_section_iter.o ABSOLUTE
    ..\\..\\..\\..\\..\\..\\components\\libraries\\fifo\\app_fifo.c 0x00000000   Number         0  app_fifo.o ABSOLUTE
    ..\\..\\..\\..\\..\\..\\components\\libraries\\fstorage\\nrf_fstorage_sd.c 0x00000000   Number         0  nrf_fstorage_sd.o ABSOLUTE
    ..\\..\\..\\..\\..\\..\\components\\libraries\\hardfault\\hardfault_implementation.c 0x00000000   Number         0  hardfault_implementation.o ABSOLUTE
    ..\\..\\..\\..\\..\\..\\components\\libraries\\scheduler\\app_scheduler.c 0x00000000   Number         0  app_scheduler.o ABSOLUTE
    ..\\..\\..\\..\\..\\..\\components\\libraries\\strerror\\nrf_strerror.c 0x00000000   Number         0  nrf_strerror.o ABSOLUTE
    ..\\..\\..\\..\\..\\..\\components\\libraries\\timer\\app_timer.c 0x00000000   Number         0  app_timer.o ABSOLUTE
    ..\\..\\..\\..\\..\\..\\components\\libraries\\uart\\app_uart_fifo.c 0x00000000   Number         0  app_uart_fifo.o ABSOLUTE
    ..\\..\\..\\..\\..\\..\\components\\libraries\\util\\app_error.c 0x00000000   Number         0  app_error.o ABSOLUTE
    ..\\..\\..\\..\\..\\..\\components\\libraries\\util\\app_error_weak.c 0x00000000   Number         0  app_error_weak.o ABSOLUTE
    ..\\..\\..\\..\\..\\..\\components\\libraries\\util\\app_util_platform.c 0x00000000   Number         0  app_util_platform.o ABSOLUTE
    ..\\..\\..\\..\\..\\..\\components\\libraries\\util\\nrf_assert.c 0x00000000   Number         0  nrf_assert.o ABSOLUTE
    ..\\..\\..\\..\\..\\..\\components\\libraries\\util\\sdk_mapped_flags.c 0x00000000   Number         0  sdk_mapped_flags.o ABSOLUTE
    ..\\..\\..\\..\\..\\..\\components\\softdevice\\common\\nrf_sdh.c 0x00000000   Number         0  nrf_sdh.o ABSOLUTE
    ..\\..\\..\\..\\..\\..\\components\\softdevice\\common\\nrf_sdh_ble.c 0x00000000   Number         0  nrf_sdh_ble.o ABSOLUTE
    ..\\..\\..\\..\\..\\..\\components\\softdevice\\common\\nrf_sdh_soc.c 0x00000000   Number         0  nrf_sdh_soc.o ABSOLUTE
    ..\\..\\..\\..\\..\\..\\external\\fprintf\\nrf_fprintf.c 0x00000000   Number         0  nrf_fprintf.o ABSOLUTE
    ..\\..\\..\\..\\..\\..\\external\\fprintf\\nrf_fprintf_format.c 0x00000000   Number         0  nrf_fprintf_format.o ABSOLUTE
    ..\\..\\..\\..\\..\\..\\external\\segger_rtt\\SEGGER_RTT.c 0x00000000   Number         0  segger_rtt.o ABSOLUTE
    ..\\..\\..\\..\\..\\..\\external\\segger_rtt\\SEGGER_RTT_Syscalls_KEIL.c 0x00000000   Number         0  segger_rtt_syscalls_keil.o ABSOLUTE
    ..\\..\\..\\..\\..\\..\\external\\segger_rtt\\SEGGER_RTT_printf.c 0x00000000   Number         0  segger_rtt_printf.o ABSOLUTE
    ..\\..\\..\\main.c                       0x00000000   Number         0  main.o ABSOLUTE
    RTE\Device\nRF52832_xxAA\arm_startup_nrf52.s 0x00000000   Number         0  arm_startup_nrf52.o ABSOLUTE
    RTE\Device\nRF52832_xxAA\system_nrf52.c  0x00000000   Number         0  system_nrf52.o ABSOLUTE
    RTE\\Device\\nRF52832_xxAA\\system_nrf52.c 0x00000000   Number         0  system_nrf52.o ABSOLUTE
    dc.s                                     0x00000000   Number         0  dc.o ABSOLUTE
    handlers.s                               0x00000000   Number         0  handlers.o ABSOLUTE
    init.s                                   0x00000000   Number         0  init.o ABSOLUTE
    RESET                                    0x00023000   Section      512  arm_startup_nrf52.o(RESET)
    .ARM.Collect$$$$00000000                 0x00023200   Section        0  entry.o(.ARM.Collect$$$$00000000)
    .ARM.Collect$$$$00000001                 0x00023200   Section        4  entry2.o(.ARM.Collect$$$$00000001)
    .ARM.Collect$$$$00000004                 0x00023204   Section        4  entry5.o(.ARM.Collect$$$$00000004)
    .ARM.Collect$$$$00000008                 0x00023208   Section        0  entry7b.o(.ARM.Collect$$$$00000008)
    .ARM.Collect$$$$0000000A                 0x00023208   Section        0  entry8b.o(.ARM.Collect$$$$0000000A)
    .ARM.Collect$$$$0000000B                 0x00023208   Section        8  entry9a.o(.ARM.Collect$$$$0000000B)
    .ARM.Collect$$$$0000000D                 0x00023210   Section        0  entry10a.o(.ARM.Collect$$$$0000000D)
    .ARM.Collect$$$$0000000F                 0x00023210   Section        0  entry11a.o(.ARM.Collect$$$$0000000F)
    .ARM.Collect$$$$00002712                 0x00023210   Section        4  entry2.o(.ARM.Collect$$$$00002712)
    __lit__00000000                          0x00023210   Data           4  entry2.o(.ARM.Collect$$$$00002712)
    .emb_text                                0x00023214   Section      200  nrf_atfifo.o(.emb_text)
    $v0                                      0x00023214   Number         0  nrf_atfifo.o(.emb_text)
    .emb_text                                0x000232dc   Section      154  nrf_fstorage_sd.o(.emb_text)
    $v0                                      0x000232dc   Number         0  nrf_fstorage_sd.o(.emb_text)
    .text                                    0x00023378   Section       36  arm_startup_nrf52.o(.text)
    $v0                                      0x00023378   Number         0  arm_startup_nrf52.o(.text)
    .text                                    0x0002339c   Section        0  uldiv.o(.text)
    .text                                    0x000233fe   Section        0  memcpya.o(.text)
    .text                                    0x00023422   Section        0  memseta.o(.text)
    .text                                    0x00023446   Section        0  strlen.o(.text)
    .text                                    0x00023454   Section        0  memcmp.o(.text)
    .text                                    0x0002346e   Section        0  llshl.o(.text)
    .text                                    0x0002348c   Section        0  llushr.o(.text)
    .text                                    0x000234ac   Section       36  init.o(.text)
    .text                                    0x000234d0   Section        0  __dczerorl.o(.text)
    i.GPIOTE_IRQHandler                      0x0002350c   Section        0  nrf_drv_gpiote.o(i.GPIOTE_IRQHandler)
    i.NVIC_ClearPendingIRQ                   0x00023744   Section        0  app_timer.o(i.NVIC_ClearPendingIRQ)
    NVIC_ClearPendingIRQ                     0x00023745   Thumb Code    18  app_timer.o(i.NVIC_ClearPendingIRQ)
    i.NVIC_EnableIRQ                         0x0002375c   Section        0  app_timer.o(i.NVIC_EnableIRQ)
    NVIC_EnableIRQ                           0x0002375d   Thumb Code    22  app_timer.o(i.NVIC_EnableIRQ)
    i.NVIC_SetPendingIRQ                     0x00023774   Section        0  app_timer.o(i.NVIC_SetPendingIRQ)
    NVIC_SetPendingIRQ                       0x00023775   Thumb Code    18  app_timer.o(i.NVIC_SetPendingIRQ)
    i.NVIC_SetPriority                       0x0002378c   Section        0  app_timer.o(i.NVIC_SetPriority)
    NVIC_SetPriority                         0x0002378d   Thumb Code    32  app_timer.o(i.NVIC_SetPriority)
    i.POWER_CLOCK_IRQHandler                 0x000237b4   Section        0  nrf_drv_clock.o(i.POWER_CLOCK_IRQHandler)
    i.RTC1_IRQHandler                        0x00023804   Section        0  app_timer.o(i.RTC1_IRQHandler)
    i.SWI0_EGU0_IRQHandler                   0x00023838   Section        0  app_timer.o(i.SWI0_EGU0_IRQHandler)
    i.SWI2_EGU2_IRQHandler                   0x00023840   Section        0  nrf_sdh.o(i.SWI2_EGU2_IRQHandler)
    i.SystemCoreClockUpdate                  0x00023848   Section        0  system_nrf52.o(i.SystemCoreClockUpdate)
    i.SystemInit                             0x00023858   Section        0  system_nrf52.o(i.SystemInit)
    i.UARTE0_UART0_IRQHandler                0x00023af0   Section        0  nrf_drv_uart.o(i.UARTE0_UART0_IRQHandler)
    i.__scatterload_copy                     0x00023b14   Section       14  handlers.o(i.__scatterload_copy)
    i.__scatterload_null                     0x00023b22   Section        2  handlers.o(i.__scatterload_null)
    i.__scatterload_zeroinit                 0x00023b24   Section       14  handlers.o(i.__scatterload_zeroinit)
    i.__sd_nvic_app_accessible_irq           0x00023b34   Section        0  nrf_sdh.o(i.__sd_nvic_app_accessible_irq)
    __sd_nvic_app_accessible_irq             0x00023b35   Thumb Code    52  nrf_sdh.o(i.__sd_nvic_app_accessible_irq)
    i.__sd_nvic_irq_disable                  0x00023b6c   Section        0  app_util_platform.o(i.__sd_nvic_irq_disable)
    __sd_nvic_irq_disable                    0x00023b6d   Thumb Code    12  app_util_platform.o(i.__sd_nvic_irq_disable)
    i.__sd_nvic_is_app_accessible_priority   0x00023b78   Section        0  nrf_sdh.o(i.__sd_nvic_is_app_accessible_priority)
    __sd_nvic_is_app_accessible_priority     0x00023b79   Thumb Code    28  nrf_sdh.o(i.__sd_nvic_is_app_accessible_priority)
    i.adv_report_parse                       0x00023b94   Section        0  main.o(i.adv_report_parse)
    adv_report_parse                         0x00023b95   Thumb Code    52  main.o(i.adv_report_parse)
    i.advertising_buttons_configure          0x00023bc8   Section        0  bsp_btn_ble.o(i.advertising_buttons_configure)
    advertising_buttons_configure            0x00023bc9   Thumb Code    84  bsp_btn_ble.o(i.advertising_buttons_configure)
    i.app_button_disable                     0x00023c1c   Section        0  app_button.o(i.app_button_disable)
    i.app_button_init                        0x00023c50   Section        0  app_button.o(i.app_button_init)
    i.app_error_fault_handler                0x00023cf8   Section        0  app_error_weak.o(i.app_error_fault_handler)
    i.app_error_handler_bare                 0x00023d50   Section        0  app_error.o(i.app_error_handler_bare)
    i.app_fifo_get                           0x00023d6c   Section        0  app_fifo.o(i.app_fifo_get)
    i.app_fifo_init                          0x00023d8a   Section        0  app_fifo.o(i.app_fifo_init)
    i.app_fifo_put                           0x00023dae   Section        0  app_fifo.o(i.app_fifo_put)
    i.app_timer_create                       0x00023dd0   Section        0  app_timer.o(i.app_timer_create)
    i.app_timer_init                         0x00023e0c   Section        0  app_timer.o(i.app_timer_init)
    i.app_timer_start                        0x00023e68   Section        0  app_timer.o(i.app_timer_start)
    i.app_timer_stop                         0x00023ebc   Section        0  app_timer.o(i.app_timer_stop)
    i.app_uart_get                           0x00023eec   Section        0  app_uart_fifo.o(i.app_uart_get)
    i.app_uart_init                          0x00023f40   Section        0  app_uart_fifo.o(i.app_uart_init)
    i.app_uart_put                           0x00024028   Section        0  app_uart_fifo.o(i.app_uart_put)
    i.app_util_critical_region_enter         0x00024068   Section        0  app_util_platform.o(i.app_util_critical_region_enter)
    i.app_util_critical_region_exit          0x00024074   Section        0  app_util_platform.o(i.app_util_critical_region_exit)
    i.apply_config                           0x000240bc   Section        0  nrf_drv_uart.o(i.apply_config)
    apply_config                             0x000240bd   Thumb Code   222  nrf_drv_uart.o(i.apply_config)
    i.bcs_internal_state_reset               0x000241a0   Section        0  ble_conn_state.o(i.bcs_internal_state_reset)
    i.ble_conn_state_init                    0x000241b0   Section        0  ble_conn_state.o(i.ble_conn_state_init)
    i.ble_conn_state_n_centrals              0x000241b8   Section        0  ble_conn_state.o(i.ble_conn_state_n_centrals)
    i.ble_db_discovery_evt_register          0x000241d0   Section        0  ble_db_discovery.o(i.ble_db_discovery_evt_register)
    i.ble_db_discovery_init                  0x00024204   Section        0  ble_db_discovery.o(i.ble_db_discovery_init)
    i.ble_db_discovery_on_ble_evt            0x0002423c   Section        0  ble_db_discovery.o(i.ble_db_discovery_on_ble_evt)
    i.ble_db_discovery_start                 0x000242d0   Section        0  ble_db_discovery.o(i.ble_db_discovery_start)
    i.ble_evt_handler                        0x00024318   Section        0  main.o(i.ble_evt_handler)
    ble_evt_handler                          0x00024319   Thumb Code   374  main.o(i.ble_evt_handler)
    i.ble_evt_handler                        0x00024498   Section        0  bsp_btn_ble.o(i.ble_evt_handler)
    ble_evt_handler                          0x00024499   Thumb Code   112  bsp_btn_ble.o(i.ble_evt_handler)
    i.ble_evt_handler                        0x00024510   Section        0  ble_conn_state.o(i.ble_evt_handler)
    ble_evt_handler                          0x00024511   Thumb Code   154  ble_conn_state.o(i.ble_evt_handler)
    i.ble_nus_c_evt_handler                  0x000245b0   Section        0  main.o(i.ble_nus_c_evt_handler)
    ble_nus_c_evt_handler                    0x000245b1   Thumb Code   100  main.o(i.ble_nus_c_evt_handler)
    i.ble_nus_c_handles_assign               0x00024614   Section        0  ble_nus_c.o(i.ble_nus_c_handles_assign)
    i.ble_nus_c_init                         0x00024638   Section        0  ble_nus_c.o(i.ble_nus_c_init)
    i.ble_nus_c_on_ble_evt                   0x0002469c   Section        0  ble_nus_c.o(i.ble_nus_c_on_ble_evt)
    i.ble_nus_c_on_db_disc_evt               0x00024702   Section        0  ble_nus_c.o(i.ble_nus_c_on_db_disc_evt)
    i.ble_nus_c_string_send                  0x00024798   Section        0  ble_nus_c.o(i.ble_nus_c_string_send)
    i.ble_nus_c_tx_notif_enable              0x000247e0   Section        0  ble_nus_c.o(i.ble_nus_c_tx_notif_enable)
    i.ble_nus_chars_received_uart_print      0x0002480c   Section        0  main.o(i.ble_nus_chars_received_uart_print)
    ble_nus_chars_received_uart_print        0x0002480d   Thumb Code    90  main.o(i.ble_nus_chars_received_uart_print)
    i.ble_stack_init                         0x00024866   Section        0  main.o(i.ble_stack_init)
    ble_stack_init                           0x00024867   Thumb Code    86  main.o(i.ble_stack_init)
    i.bsp_board_led_invert                   0x000248bc   Section        0  boards.o(i.bsp_board_led_invert)
    i.bsp_board_led_off                      0x000248ec   Section        0  boards.o(i.bsp_board_led_off)
    i.bsp_board_led_on                       0x00024900   Section        0  boards.o(i.bsp_board_led_on)
    i.bsp_board_led_state_get                0x00024914   Section        0  boards.o(i.bsp_board_led_state_get)
    i.bsp_board_leds_init                    0x00024944   Section        0  boards.o(i.bsp_board_leds_init)
    i.bsp_board_leds_off                     0x00024974   Section        0  boards.o(i.bsp_board_leds_off)
    i.bsp_board_leds_on                      0x00024988   Section        0  boards.o(i.bsp_board_leds_on)
    i.bsp_board_pin_to_button_idx            0x0002499c   Section        0  boards.o(i.bsp_board_pin_to_button_idx)
    i.bsp_button_event_handler               0x000249c0   Section        0  bsp.o(i.bsp_button_event_handler)
    bsp_button_event_handler                 0x000249c1   Thumb Code   176  bsp.o(i.bsp_button_event_handler)
    i.bsp_event_to_button_action_assign      0x00024a84   Section        0  bsp.o(i.bsp_event_to_button_action_assign)
    i.bsp_indication_set                     0x00024ae0   Section        0  bsp.o(i.bsp_indication_set)
    i.bsp_led_indication                     0x00024b00   Section        0  bsp.o(i.bsp_led_indication)
    bsp_led_indication                       0x00024b01   Thumb Code   872  bsp.o(i.bsp_led_indication)
    i.button_event_handler                   0x00024e7c   Section        0  main.o(i.button_event_handler)
    button_event_handler                     0x00024e7d   Thumb Code    36  main.o(i.button_event_handler)
    i.buttons_init                           0x00024ea0   Section        0  main.o(i.buttons_init)
    buttons_init                             0x00024ea1   Thumb Code    36  main.o(i.buttons_init)
    i.cccd_configure                         0x00024ec8   Section        0  ble_nus_c.o(i.cccd_configure)
    cccd_configure                           0x00024ec9   Thumb Code    44  ble_nus_c.o(i.cccd_configure)
    i.channel_free                           0x00024ef8   Section        0  nrf_drv_gpiote.o(i.channel_free)
    channel_free                             0x00024ef9   Thumb Code    26  nrf_drv_gpiote.o(i.channel_free)
    i.channel_handler_get                    0x00024f18   Section        0  nrf_drv_gpiote.o(i.channel_handler_get)
    channel_handler_get                      0x00024f19   Thumb Code    10  nrf_drv_gpiote.o(i.channel_handler_get)
    i.channel_port_alloc                     0x00024f28   Section        0  nrf_drv_gpiote.o(i.channel_port_alloc)
    channel_port_alloc                       0x00024f29   Thumb Code   122  nrf_drv_gpiote.o(i.channel_port_alloc)
    i.channel_port_get                       0x00024fa8   Section        0  nrf_drv_gpiote.o(i.channel_port_get)
    channel_port_get                         0x00024fa9   Thumb Code     8  nrf_drv_gpiote.o(i.channel_port_get)
    i.characteristics_discover               0x00024fb4   Section        0  ble_db_discovery.o(i.characteristics_discover)
    characteristics_discover                 0x00024fb5   Thumb Code    96  ble_db_discovery.o(i.characteristics_discover)
    i.clock_clk_started_notify               0x00025014   Section        0  nrf_drv_clock.o(i.clock_clk_started_notify)
    clock_clk_started_notify                 0x00025015   Thumb Code    42  nrf_drv_clock.o(i.clock_clk_started_notify)
    i.compare_reg_update                     0x00025044   Section        0  app_timer.o(i.compare_reg_update)
    compare_reg_update                       0x00025045   Thumb Code   132  app_timer.o(i.compare_reg_update)
    i.connection_buttons_configure           0x000250d4   Section        0  bsp_btn_ble.o(i.connection_buttons_configure)
    connection_buttons_configure             0x000250d5   Thumb Code    84  bsp_btn_ble.o(i.connection_buttons_configure)
    i.data_length_update                     0x00025128   Section        0  nrf_ble_gatt.o(i.data_length_update)
    data_length_update                       0x00025129   Thumb Code    48  nrf_ble_gatt.o(i.data_length_update)
    i.db_disc_handler                        0x00025158   Section        0  main.o(i.db_disc_handler)
    db_disc_handler                          0x00025159   Thumb Code    20  main.o(i.db_disc_handler)
    i.db_discovery_init                      0x00025170   Section        0  main.o(i.db_discovery_init)
    db_discovery_init                        0x00025171   Thumb Code    30  main.o(i.db_discovery_init)
    i.descriptors_discover                   0x00025194   Section        0  ble_db_discovery.o(i.descriptors_discover)
    descriptors_discover                     0x00025195   Thumb Code   182  ble_db_discovery.o(i.descriptors_discover)
    i.detection_delay_timeout_handler        0x0002524c   Section        0  app_button.o(i.detection_delay_timeout_handler)
    detection_delay_timeout_handler          0x0002524d   Thumb Code   124  app_button.o(i.detection_delay_timeout_handler)
    i.discovery_complete_evt_trigger         0x000252d8   Section        0  ble_db_discovery.o(i.discovery_complete_evt_trigger)
    discovery_complete_evt_trigger           0x000252d9   Thumb Code   150  ble_db_discovery.o(i.discovery_complete_evt_trigger)
    i.discovery_error_evt_trigger            0x0002537c   Section        0  ble_db_discovery.o(i.discovery_error_evt_trigger)
    discovery_error_evt_trigger              0x0002537d   Thumb Code    66  ble_db_discovery.o(i.discovery_error_evt_trigger)
    i.discovery_start                        0x000253c4   Section        0  ble_db_discovery.o(i.discovery_start)
    discovery_start                          0x000253c5   Thumb Code   124  ble_db_discovery.o(i.discovery_start)
    i.elapsed_ticks_acquire                  0x00025448   Section        0  app_timer.o(i.elapsed_ticks_acquire)
    elapsed_ticks_acquire                    0x00025449   Thumb Code    82  app_timer.o(i.elapsed_ticks_acquire)
    i.erase                                  0x000254ac   Section        0  nrf_fstorage_sd.o(i.erase)
    erase                                    0x000254ad   Thumb Code    80  nrf_fstorage_sd.o(i.erase)
    i.erase_execute                          0x00025504   Section        0  nrf_fstorage_sd.o(i.erase_execute)
    erase_execute                            0x00025505   Thumb Code    14  nrf_fstorage_sd.o(i.erase_execute)
    i.errata_108                             0x00025514   Section        0  system_nrf52.o(i.errata_108)
    errata_108                               0x00025515   Thumb Code    78  system_nrf52.o(i.errata_108)
    i.errata_12                              0x00025568   Section        0  system_nrf52.o(i.errata_12)
    errata_12                                0x00025569   Thumb Code    78  system_nrf52.o(i.errata_12)
    i.errata_136                             0x000255bc   Section        0  system_nrf52.o(i.errata_136)
    errata_136                               0x000255bd   Thumb Code    78  system_nrf52.o(i.errata_136)
    i.errata_16                              0x00025610   Section        0  system_nrf52.o(i.errata_16)
    errata_16                                0x00025611   Thumb Code    42  system_nrf52.o(i.errata_16)
    i.errata_182                             0x00025640   Section        0  system_nrf52.o(i.errata_182)
    errata_182                               0x00025641   Thumb Code    26  system_nrf52.o(i.errata_182)
    i.errata_31                              0x00025660   Section        0  system_nrf52.o(i.errata_31)
    errata_31                                0x00025661   Thumb Code    78  system_nrf52.o(i.errata_31)
    i.errata_32                              0x000256b4   Section        0  system_nrf52.o(i.errata_32)
    errata_32                                0x000256b5   Thumb Code    42  system_nrf52.o(i.errata_32)
    i.errata_36                              0x000256e4   Section        0  system_nrf52.o(i.errata_36)
    errata_36                                0x000256e5   Thumb Code    78  system_nrf52.o(i.errata_36)
    i.errata_37                              0x00025738   Section        0  system_nrf52.o(i.errata_37)
    errata_37                                0x00025739   Thumb Code    42  system_nrf52.o(i.errata_37)
    i.errata_57                              0x00025768   Section        0  system_nrf52.o(i.errata_57)
    errata_57                                0x00025769   Thumb Code    42  system_nrf52.o(i.errata_57)
    i.errata_66                              0x00025798   Section        0  system_nrf52.o(i.errata_66)
    errata_66                                0x00025799   Thumb Code    42  system_nrf52.o(i.errata_66)
    i.event_send                             0x000257c8   Section        0  nrf_fstorage_sd.o(i.event_send)
    event_send                               0x000257c9   Thumb Code    96  nrf_fstorage_sd.o(i.event_send)
    i.expired_timers_handler                 0x0002582c   Section        0  app_timer.o(i.expired_timers_handler)
    expired_timers_handler                   0x0002582d   Thumb Code    84  app_timer.o(i.expired_timers_handler)
    i.fifo_get                               0x00025884   Section        0  app_fifo.o(i.fifo_get)
    fifo_get                                 0x00025885   Thumb Code    24  app_fifo.o(i.fifo_get)
    i.fifo_length                            0x0002589c   Section        0  app_uart_fifo.o(i.fifo_length)
    fifo_length                              0x0002589d   Thumb Code    10  app_uart_fifo.o(i.fifo_length)
    i.fifo_length                            0x000258a6   Section        0  app_fifo.o(i.fifo_length)
    fifo_length                              0x000258a7   Thumb Code    10  app_fifo.o(i.fifo_length)
    i.fifo_peek                              0x000258b0   Section        0  app_fifo.o(i.fifo_peek)
    fifo_peek                                0x000258b1   Thumb Code    18  app_fifo.o(i.fifo_peek)
    i.fifo_put                               0x000258c2   Section        0  app_fifo.o(i.fifo_put)
    fifo_put                                 0x000258c3   Thumb Code    18  app_fifo.o(i.fifo_put)
    i.gatt_init                              0x000258d4   Section        0  main.o(i.gatt_init)
    gatt_init                                0x000258d5   Thumb Code    32  main.o(i.gatt_init)
    i.gpiote_event_handler                   0x000258f8   Section        0  app_button.o(i.gpiote_event_handler)
    gpiote_event_handler                     0x000258f9   Thumb Code   110  app_button.o(i.gpiote_event_handler)
    i.init                                   0x00025978   Section        0  nrf_fstorage_sd.o(i.init)
    init                                     0x00025979   Thumb Code    62  nrf_fstorage_sd.o(i.init)
    i.interrupts_enable                      0x000259c8   Section        0  nrf_drv_uart.o(i.interrupts_enable)
    interrupts_enable                        0x000259c9   Thumb Code   126  nrf_drv_uart.o(i.interrupts_enable)
    i.is_busy                                0x00025a54   Section        0  nrf_fstorage_sd.o(i.is_busy)
    is_busy                                  0x00025a55   Thumb Code    16  nrf_fstorage_sd.o(i.is_busy)
    i.is_char_discovery_reqd                 0x00025a68   Section        0  ble_db_discovery.o(i.is_char_discovery_reqd)
    is_char_discovery_reqd                   0x00025a69   Thumb Code    36  ble_db_discovery.o(i.is_char_discovery_reqd)
    i.is_desc_discovery_reqd                 0x00025a8c   Section        0  ble_db_discovery.o(i.is_desc_discovery_reqd)
    is_desc_discovery_reqd                   0x00025a8d   Thumb Code    94  ble_db_discovery.o(i.is_desc_discovery_reqd)
    i.item_dequeue                           0x00025aea   Section        0  nrf_drv_clock.o(i.item_dequeue)
    item_dequeue                             0x00025aeb   Thumb Code    12  nrf_drv_clock.o(i.item_dequeue)
    i.led_status_send_to_all                 0x00025af6   Section        0  main.o(i.led_status_send_to_all)
    led_status_send_to_all                   0x00025af7   Thumb Code     6  main.o(i.led_status_send_to_all)
    i.leds_init                              0x00025afc   Section        0  main.o(i.leds_init)
    leds_init                                0x00025afd   Thumb Code     8  main.o(i.leds_init)
    i.leds_off                               0x00025b04   Section        0  bsp.o(i.leds_off)
    leds_off                                 0x00025b05   Thumb Code    36  bsp.o(i.leds_off)
    i.lfclk_stop                             0x00025b2c   Section        0  nrf_drv_clock.o(i.lfclk_stop)
    lfclk_stop                               0x00025b2d   Thumb Code    24  nrf_drv_clock.o(i.lfclk_stop)
    i.link_init                              0x00025b48   Section        0  nrf_ble_gatt.o(i.link_init)
    link_init                                0x00025b49   Thumb Code    20  nrf_ble_gatt.o(i.link_init)
    i.list_insertions_handler                0x00025b5c   Section        0  app_timer.o(i.list_insertions_handler)
    list_insertions_handler                  0x00025b5d   Thumb Code   294  app_timer.o(i.list_insertions_handler)
    i.log_init                               0x00025c98   Section        0  main.o(i.log_init)
    log_init                                 0x00025c99   Thumb Code    24  main.o(i.log_init)
    i.main                                   0x00025cb0   Section        0  main.o(i.main)
    i.nrf_atfifo_clear                       0x00025cea   Section        0  nrf_atfifo.o(i.nrf_atfifo_clear)
    i.nrf_atfifo_init                        0x00025d00   Section        0  nrf_atfifo.o(i.nrf_atfifo_init)
    i.nrf_atfifo_item_alloc                  0x00025d28   Section        0  nrf_atfifo.o(i.nrf_atfifo_item_alloc)
    i.nrf_atfifo_item_free                   0x00025d44   Section        0  nrf_atfifo.o(i.nrf_atfifo_item_free)
    i.nrf_atfifo_item_get                    0x00025d60   Section        0  nrf_atfifo.o(i.nrf_atfifo_item_get)
    i.nrf_atfifo_item_put                    0x00025d7c   Section        0  nrf_atfifo.o(i.nrf_atfifo_item_put)
    i.nrf_bitmask_bit_is_set                 0x00025d98   Section        0  nrf_drv_gpiote.o(i.nrf_bitmask_bit_is_set)
    nrf_bitmask_bit_is_set                   0x00025d99   Thumb Code    22  nrf_drv_gpiote.o(i.nrf_bitmask_bit_is_set)
    i.nrf_ble_gatt_init                      0x00025dae   Section        0  nrf_ble_gatt.o(i.nrf_ble_gatt_init)
    i.nrf_ble_gatt_on_ble_evt                0x00025de4   Section        0  nrf_ble_gatt.o(i.nrf_ble_gatt_on_ble_evt)
    i.nrf_clock_event_check                  0x00025e92   Section        0  nrf_drv_clock.o(i.nrf_clock_event_check)
    nrf_clock_event_check                    0x00025e93   Thumb Code    18  nrf_drv_clock.o(i.nrf_clock_event_check)
    i.nrf_clock_event_clear                  0x00025ea4   Section        0  nrf_drv_clock.o(i.nrf_clock_event_clear)
    nrf_clock_event_clear                    0x00025ea5   Thumb Code    18  nrf_drv_clock.o(i.nrf_clock_event_clear)
    i.nrf_clock_int_disable                  0x00025eb8   Section        0  nrf_drv_clock.o(i.nrf_clock_int_disable)
    nrf_clock_int_disable                    0x00025eb9   Thumb Code     6  nrf_drv_clock.o(i.nrf_clock_int_disable)
    i.nrf_clock_lf_is_running                0x00025ec4   Section        0  nrf_drv_clock.o(i.nrf_clock_lf_is_running)
    nrf_clock_lf_is_running                  0x00025ec5   Thumb Code    10  nrf_drv_clock.o(i.nrf_clock_lf_is_running)
    i.nrf_clock_task_trigger                 0x00025ed4   Section        0  nrf_drv_clock.o(i.nrf_clock_task_trigger)
    nrf_clock_task_trigger                   0x00025ed5   Thumb Code     8  nrf_drv_clock.o(i.nrf_clock_task_trigger)
    i.nrf_delay_us                           0x00025edc   Section        0  app_timer.o(i.nrf_delay_us)
    nrf_delay_us                             0x00025edd   Thumb Code   146  app_timer.o(i.nrf_delay_us)
    i.nrf_drv_clock_init                     0x00025f78   Section        0  nrf_drv_clock.o(i.nrf_drv_clock_init)
    i.nrf_drv_clock_lfclk_release            0x00025fe0   Section        0  nrf_drv_clock.o(i.nrf_drv_clock_lfclk_release)
    i.nrf_drv_common_irq_enable              0x00026010   Section        0  nrf_drv_common.o(i.nrf_drv_common_irq_enable)
    i.nrf_drv_get_IRQn                       0x00026070   Section        0  nrf_drv_uart.o(i.nrf_drv_get_IRQn)
    nrf_drv_get_IRQn                         0x00026071   Thumb Code    10  nrf_drv_uart.o(i.nrf_drv_get_IRQn)
    i.nrf_drv_gpiote_in_event_disable        0x0002607c   Section        0  nrf_drv_gpiote.o(i.nrf_drv_gpiote_in_event_disable)
    i.nrf_drv_gpiote_in_init                 0x000260d0   Section        0  nrf_drv_gpiote.o(i.nrf_drv_gpiote_in_init)
    i.nrf_drv_gpiote_in_is_set               0x000261ac   Section        0  nrf_drv_gpiote.o(i.nrf_drv_gpiote_in_is_set)
    i.nrf_drv_gpiote_init                    0x000261c0   Section        0  nrf_drv_gpiote.o(i.nrf_drv_gpiote_init)
    i.nrf_drv_gpiote_is_init                 0x00026220   Section        0  nrf_drv_gpiote.o(i.nrf_drv_gpiote_is_init)
    i.nrf_drv_is_in_RAM                      0x00026234   Section        0  nrf_drv_uart.o(i.nrf_drv_is_in_RAM)
    nrf_drv_is_in_RAM                        0x00026235   Thumb Code    20  nrf_drv_uart.o(i.nrf_drv_is_in_RAM)
    i.nrf_drv_uart_init                      0x00026248   Section        0  nrf_drv_uart.o(i.nrf_drv_uart_init)
    i.nrf_drv_uart_rx                        0x000262cc   Section        0  nrf_drv_uart.o(i.nrf_drv_uart_rx)
    i.nrf_drv_uart_rx_enable                 0x000263a0   Section        0  nrf_drv_uart.o(i.nrf_drv_uart_rx_enable)
    i.nrf_drv_uart_rx_for_uart               0x000263d4   Section        0  nrf_drv_uart.o(i.nrf_drv_uart_rx_for_uart)
    nrf_drv_uart_rx_for_uart                 0x000263d5   Thumb Code   198  nrf_drv_uart.o(i.nrf_drv_uart_rx_for_uart)
    i.nrf_drv_uart_rx_for_uarte              0x000264a0   Section        0  nrf_drv_uart.o(i.nrf_drv_uart_rx_for_uarte)
    nrf_drv_uart_rx_for_uarte                0x000264a1   Thumb Code   196  nrf_drv_uart.o(i.nrf_drv_uart_rx_for_uarte)
    i.nrf_drv_uart_tx                        0x00026568   Section        0  nrf_drv_uart.o(i.nrf_drv_uart_tx)
    i.nrf_drv_uart_tx_for_uart               0x000265cc   Section        0  nrf_drv_uart.o(i.nrf_drv_uart_tx_for_uart)
    nrf_drv_uart_tx_for_uart                 0x000265cd   Thumb Code   136  nrf_drv_uart.o(i.nrf_drv_uart_tx_for_uart)
    i.nrf_drv_uart_tx_for_uarte              0x00026658   Section        0  nrf_drv_uart.o(i.nrf_drv_uart_tx_for_uarte)
    nrf_drv_uart_tx_for_uarte                0x00026659   Thumb Code   118  nrf_drv_uart.o(i.nrf_drv_uart_tx_for_uarte)
    i.nrf_drv_uart_tx_in_progress            0x000266d4   Section        0  nrf_drv_uart.o(i.nrf_drv_uart_tx_in_progress)
    i.nrf_fstorage_sdh_req_handler           0x000266f0   Section        0  nrf_fstorage_sd.o(i.nrf_fstorage_sdh_req_handler)
    i.nrf_fstorage_sdh_state_handler         0x0002670c   Section        0  nrf_fstorage_sd.o(i.nrf_fstorage_sdh_state_handler)
    i.nrf_fstorage_sys_evt_handler           0x00026738   Section        0  nrf_fstorage_sd.o(i.nrf_fstorage_sys_evt_handler)
    i.nrf_gpio_cfg                           0x000267b4   Section        0  boards.o(i.nrf_gpio_cfg)
    nrf_gpio_cfg                             0x000267b5   Thumb Code    40  boards.o(i.nrf_gpio_cfg)
    i.nrf_gpio_cfg                           0x000267dc   Section        0  nrf_drv_gpiote.o(i.nrf_gpio_cfg)
    nrf_gpio_cfg                             0x000267dd   Thumb Code    40  nrf_drv_gpiote.o(i.nrf_gpio_cfg)
    i.nrf_gpio_cfg                           0x00026804   Section        0  nrf_drv_uart.o(i.nrf_gpio_cfg)
    nrf_gpio_cfg                             0x00026805   Thumb Code    40  nrf_drv_uart.o(i.nrf_gpio_cfg)
    i.nrf_gpio_cfg_input                     0x0002682c   Section        0  nrf_drv_uart.o(i.nrf_gpio_cfg_input)
    nrf_gpio_cfg_input                       0x0002682d   Thumb Code    26  nrf_drv_uart.o(i.nrf_gpio_cfg_input)
    i.nrf_gpio_cfg_output                    0x00026846   Section        0  nrf_drv_uart.o(i.nrf_gpio_cfg_output)
    nrf_gpio_cfg_output                      0x00026847   Thumb Code    24  nrf_drv_uart.o(i.nrf_gpio_cfg_output)
    i.nrf_gpio_cfg_sense_set                 0x0002685e   Section        0  nrf_drv_gpiote.o(i.nrf_gpio_cfg_sense_set)
    nrf_gpio_cfg_sense_set                   0x0002685f   Thumb Code    50  nrf_drv_gpiote.o(i.nrf_gpio_cfg_sense_set)
    i.nrf_gpio_pin_read                      0x00026890   Section        0  nrf_drv_gpiote.o(i.nrf_gpio_pin_read)
    nrf_gpio_pin_read                        0x00026891   Thumb Code    24  nrf_drv_gpiote.o(i.nrf_gpio_pin_read)
    i.nrf_gpio_pin_set                       0x000268a8   Section        0  nrf_drv_uart.o(i.nrf_gpio_pin_set)
    nrf_gpio_pin_set                         0x000268a9   Thumb Code    22  nrf_drv_uart.o(i.nrf_gpio_pin_set)
    i.nrf_gpio_pin_write                     0x000268be   Section        0  boards.o(i.nrf_gpio_pin_write)
    nrf_gpio_pin_write                       0x000268bf   Thumb Code    58  boards.o(i.nrf_gpio_pin_write)
    i.nrf_gpio_ports_read                    0x000268f8   Section        0  nrf_drv_gpiote.o(i.nrf_gpio_ports_read)
    nrf_gpio_ports_read                      0x000268f9   Thumb Code    36  nrf_drv_gpiote.o(i.nrf_gpio_ports_read)
    i.nrf_gpiote_event_addr_get              0x00026920   Section        0  nrf_drv_gpiote.o(i.nrf_gpiote_event_addr_get)
    nrf_gpiote_event_addr_get                0x00026921   Thumb Code     8  nrf_drv_gpiote.o(i.nrf_gpiote_event_addr_get)
    i.nrf_gpiote_event_clear                 0x0002692c   Section        0  nrf_drv_gpiote.o(i.nrf_gpiote_event_clear)
    nrf_gpiote_event_clear                   0x0002692d   Thumb Code    28  nrf_drv_gpiote.o(i.nrf_gpiote_event_clear)
    i.nrf_gpiote_event_is_set                0x00026948   Section        0  nrf_drv_gpiote.o(i.nrf_gpiote_event_is_set)
    nrf_gpiote_event_is_set                  0x00026949   Thumb Code    22  nrf_drv_gpiote.o(i.nrf_gpiote_event_is_set)
    i.nrf_gpiote_int_enable                  0x00026960   Section        0  nrf_drv_gpiote.o(i.nrf_gpiote_int_enable)
    nrf_gpiote_int_enable                    0x00026961   Thumb Code     6  nrf_drv_gpiote.o(i.nrf_gpiote_int_enable)
    i.nrf_sdh_ble_app_ram_start_get          0x0002696c   Section        0  nrf_sdh_ble.o(i.nrf_sdh_ble_app_ram_start_get)
    i.nrf_sdh_ble_default_cfg_set            0x00026984   Section        0  nrf_sdh_ble.o(i.nrf_sdh_ble_default_cfg_set)
    i.nrf_sdh_ble_enable                     0x00026a24   Section        0  nrf_sdh_ble.o(i.nrf_sdh_ble_enable)
    i.nrf_sdh_ble_evts_poll                  0x00026a34   Section        0  nrf_sdh_ble.o(i.nrf_sdh_ble_evts_poll)
    nrf_sdh_ble_evts_poll                    0x00026a35   Thumb Code    92  nrf_sdh_ble.o(i.nrf_sdh_ble_evts_poll)
    i.nrf_sdh_disable_request                0x00026a94   Section        0  nrf_sdh.o(i.nrf_sdh_disable_request)
    i.nrf_sdh_enable_request                 0x00026ae4   Section        0  nrf_sdh.o(i.nrf_sdh_enable_request)
    i.nrf_sdh_evts_poll                      0x00026b54   Section        0  nrf_sdh.o(i.nrf_sdh_evts_poll)
    i.nrf_sdh_is_enabled                     0x00026b84   Section        0  nrf_sdh.o(i.nrf_sdh_is_enabled)
    i.nrf_sdh_request_continue               0x00026b90   Section        0  nrf_sdh.o(i.nrf_sdh_request_continue)
    i.nrf_sdh_soc_evts_poll                  0x00026bb8   Section        0  nrf_sdh_soc.o(i.nrf_sdh_soc_evts_poll)
    nrf_sdh_soc_evts_poll                    0x00026bb9   Thumb Code    80  nrf_sdh_soc.o(i.nrf_sdh_soc_evts_poll)
    i.nrf_section_iter_get                   0x00026c0c   Section        0  nrf_sdh.o(i.nrf_section_iter_get)
    nrf_section_iter_get                     0x00026c0d   Thumb Code     6  nrf_sdh.o(i.nrf_section_iter_get)
    i.nrf_section_iter_init                  0x00026c12   Section        0  nrf_section_iter.o(i.nrf_section_iter_init)
    i.nrf_section_iter_item_set              0x00026c26   Section        0  nrf_section_iter.o(i.nrf_section_iter_item_set)
    nrf_section_iter_item_set                0x00026c27   Thumb Code    46  nrf_section_iter.o(i.nrf_section_iter_item_set)
    i.nrf_section_iter_next                  0x00026c54   Section        0  nrf_section_iter.o(i.nrf_section_iter_next)
    i.nrf_uart_errorsrc_get_and_clear        0x00026c82   Section        0  nrf_drv_uart.o(i.nrf_uart_errorsrc_get_and_clear)
    nrf_uart_errorsrc_get_and_clear          0x00026c83   Thumb Code    12  nrf_drv_uart.o(i.nrf_uart_errorsrc_get_and_clear)
    i.nrf_uart_event_check                   0x00026c8e   Section        0  nrf_drv_uart.o(i.nrf_uart_event_check)
    nrf_uart_event_check                     0x00026c8f   Thumb Code    14  nrf_drv_uart.o(i.nrf_uart_event_check)
    i.nrf_uart_event_clear                   0x00026c9c   Section        0  nrf_drv_uart.o(i.nrf_uart_event_clear)
    nrf_uart_event_clear                     0x00026c9d   Thumb Code    14  nrf_drv_uart.o(i.nrf_uart_event_clear)
    i.nrf_uart_hwfc_pins_set                 0x00026caa   Section        0  nrf_drv_uart.o(i.nrf_uart_hwfc_pins_set)
    nrf_uart_hwfc_pins_set                   0x00026cab   Thumb Code    10  nrf_drv_uart.o(i.nrf_uart_hwfc_pins_set)
    i.nrf_uart_int_disable                   0x00026cb4   Section        0  nrf_drv_uart.o(i.nrf_uart_int_disable)
    nrf_uart_int_disable                     0x00026cb5   Thumb Code     6  nrf_drv_uart.o(i.nrf_uart_int_disable)
    i.nrf_uart_int_enable                    0x00026cba   Section        0  nrf_drv_uart.o(i.nrf_uart_int_enable)
    nrf_uart_int_enable                      0x00026cbb   Thumb Code     6  nrf_drv_uart.o(i.nrf_uart_int_enable)
    i.nrf_uart_int_enable_check              0x00026cc0   Section        0  nrf_drv_uart.o(i.nrf_uart_int_enable_check)
    nrf_uart_int_enable_check                0x00026cc1   Thumb Code    18  nrf_drv_uart.o(i.nrf_uart_int_enable_check)
    i.nrf_uart_task_trigger                  0x00026cd2   Section        0  nrf_drv_uart.o(i.nrf_uart_task_trigger)
    nrf_uart_task_trigger                    0x00026cd3   Thumb Code     6  nrf_drv_uart.o(i.nrf_uart_task_trigger)
    i.nrf_uart_txrx_pins_set                 0x00026cd8   Section        0  nrf_drv_uart.o(i.nrf_uart_txrx_pins_set)
    nrf_uart_txrx_pins_set                   0x00026cd9   Thumb Code    10  nrf_drv_uart.o(i.nrf_uart_txrx_pins_set)
    i.nrf_uarte_errorsrc_get_and_clear       0x00026ce2   Section        0  nrf_drv_uart.o(i.nrf_uarte_errorsrc_get_and_clear)
    nrf_uarte_errorsrc_get_and_clear         0x00026ce3   Thumb Code    12  nrf_drv_uart.o(i.nrf_uarte_errorsrc_get_and_clear)
    i.nrf_uarte_event_check                  0x00026cee   Section        0  nrf_drv_uart.o(i.nrf_uarte_event_check)
    nrf_uarte_event_check                    0x00026cef   Thumb Code    14  nrf_drv_uart.o(i.nrf_uarte_event_check)
    i.nrf_uarte_event_clear                  0x00026cfc   Section        0  nrf_drv_uart.o(i.nrf_uarte_event_clear)
    nrf_uarte_event_clear                    0x00026cfd   Thumb Code    14  nrf_drv_uart.o(i.nrf_uarte_event_clear)
    i.nrf_uarte_hwfc_pins_set                0x00026d0a   Section        0  nrf_drv_uart.o(i.nrf_uarte_hwfc_pins_set)
    nrf_uarte_hwfc_pins_set                  0x00026d0b   Thumb Code    12  nrf_drv_uart.o(i.nrf_uarte_hwfc_pins_set)
    i.nrf_uarte_int_disable                  0x00026d16   Section        0  nrf_drv_uart.o(i.nrf_uarte_int_disable)
    nrf_uarte_int_disable                    0x00026d17   Thumb Code     6  nrf_drv_uart.o(i.nrf_uarte_int_disable)
    i.nrf_uarte_int_enable                   0x00026d1c   Section        0  nrf_drv_uart.o(i.nrf_uarte_int_enable)
    nrf_uarte_int_enable                     0x00026d1d   Thumb Code     6  nrf_drv_uart.o(i.nrf_uarte_int_enable)
    i.nrf_uarte_rx_amount_get                0x00026d22   Section        0  nrf_drv_uart.o(i.nrf_uarte_rx_amount_get)
    nrf_uarte_rx_amount_get                  0x00026d23   Thumb Code    10  nrf_drv_uart.o(i.nrf_uarte_rx_amount_get)
    i.nrf_uarte_task_trigger                 0x00026d2c   Section        0  nrf_drv_uart.o(i.nrf_uarte_task_trigger)
    nrf_uarte_task_trigger                   0x00026d2d   Thumb Code     6  nrf_drv_uart.o(i.nrf_uarte_task_trigger)
    i.nrf_uarte_txrx_pins_set                0x00026d32   Section        0  nrf_drv_uart.o(i.nrf_uarte_txrx_pins_set)
    nrf_uarte_txrx_pins_set                  0x00026d33   Thumb Code    14  nrf_drv_uart.o(i.nrf_uarte_txrx_pins_set)
    i.nus_c_init                             0x00026d40   Section        0  main.o(i.nus_c_init)
    nus_c_init                               0x00026d41   Thumb Code    50  main.o(i.nus_c_init)
    i.on_adv_report                          0x00026d7c   Section        0  main.o(i.on_adv_report)
    on_adv_report                            0x00026d7d   Thumb Code   122  main.o(i.on_adv_report)
    i.on_characteristic_discovery_rsp        0x00026e04   Section        0  ble_db_discovery.o(i.on_characteristic_discovery_rsp)
    on_characteristic_discovery_rsp          0x00026e05   Thumb Code   380  ble_db_discovery.o(i.on_characteristic_discovery_rsp)
    i.on_connected_evt                       0x00026f84   Section        0  nrf_ble_gatt.o(i.on_connected_evt)
    on_connected_evt                         0x00026f85   Thumb Code   102  nrf_ble_gatt.o(i.on_connected_evt)
    i.on_data_length_update_evt              0x00026fec   Section        0  nrf_ble_gatt.o(i.on_data_length_update_evt)
    on_data_length_update_evt                0x00026fed   Thumb Code    82  nrf_ble_gatt.o(i.on_data_length_update_evt)
    i.on_data_length_update_request_evt      0x00027044   Section        0  nrf_ble_gatt.o(i.on_data_length_update_request_evt)
    on_data_length_update_request_evt        0x00027045   Thumb Code    68  nrf_ble_gatt.o(i.on_data_length_update_request_evt)
    i.on_descriptor_discovery_rsp            0x00027088   Section        0  ble_db_discovery.o(i.on_descriptor_discovery_rsp)
    on_descriptor_discovery_rsp              0x00027089   Thumb Code   298  ble_db_discovery.o(i.on_descriptor_discovery_rsp)
    i.on_disconnected                        0x000271b8   Section        0  ble_db_discovery.o(i.on_disconnected)
    on_disconnected                          0x000271b9   Thumb Code    30  ble_db_discovery.o(i.on_disconnected)
    i.on_disconnected_evt                    0x000271d6   Section        0  nrf_ble_gatt.o(i.on_disconnected_evt)
    on_disconnected_evt                      0x000271d7   Thumb Code    20  nrf_ble_gatt.o(i.on_disconnected_evt)
    i.on_exchange_mtu_request_evt            0x000271ec   Section        0  nrf_ble_gatt.o(i.on_exchange_mtu_request_evt)
    on_exchange_mtu_request_evt              0x000271ed   Thumb Code   108  nrf_ble_gatt.o(i.on_exchange_mtu_request_evt)
    i.on_exchange_mtu_rsp_evt                0x0002725c   Section        0  nrf_ble_gatt.o(i.on_exchange_mtu_rsp_evt)
    on_exchange_mtu_rsp_evt                  0x0002725d   Thumb Code    98  nrf_ble_gatt.o(i.on_exchange_mtu_rsp_evt)
    i.on_hvx                                 0x000272c4   Section        0  ble_nus_c.o(i.on_hvx)
    on_hvx                                   0x000272c5   Thumb Code    56  ble_nus_c.o(i.on_hvx)
    i.on_operation_failure                   0x000272fc   Section        0  nrf_fstorage_sd.o(i.on_operation_failure)
    on_operation_failure                     0x000272fd   Thumb Code    32  nrf_fstorage_sd.o(i.on_operation_failure)
    i.on_operation_success                   0x00027320   Section        0  nrf_fstorage_sd.o(i.on_operation_success)
    on_operation_success                     0x00027321   Thumb Code    92  nrf_fstorage_sd.o(i.on_operation_success)
    i.on_primary_srv_discovery_rsp           0x00027380   Section        0  ble_db_discovery.o(i.on_primary_srv_discovery_rsp)
    on_primary_srv_discovery_rsp             0x00027381   Thumb Code   122  ble_db_discovery.o(i.on_primary_srv_discovery_rsp)
    i.on_srv_disc_completion                 0x00027400   Section        0  ble_db_discovery.o(i.on_srv_disc_completion)
    on_srv_disc_completion                   0x00027401   Thumb Code   144  ble_db_discovery.o(i.on_srv_disc_completion)
    i.pending_user_evts_send                 0x0002749c   Section        0  ble_db_discovery.o(i.pending_user_evts_send)
    pending_user_evts_send                   0x0002749d   Thumb Code    38  ble_db_discovery.o(i.pending_user_evts_send)
    i.pin_in_use_by_gpiote                   0x000274d0   Section        0  nrf_drv_gpiote.o(i.pin_in_use_by_gpiote)
    pin_in_use_by_gpiote                     0x000274d1   Thumb Code    22  nrf_drv_gpiote.o(i.pin_in_use_by_gpiote)
    i.pin_in_use_by_port                     0x000274ec   Section        0  nrf_drv_gpiote.o(i.pin_in_use_by_port)
    pin_in_use_by_port                       0x000274ed   Thumb Code    18  nrf_drv_gpiote.o(i.pin_in_use_by_port)
    i.pin_in_use_by_te                       0x00027504   Section        0  nrf_drv_gpiote.o(i.pin_in_use_by_te)
    pin_in_use_by_te                         0x00027505   Thumb Code    26  nrf_drv_gpiote.o(i.pin_in_use_by_te)
    i.pin_in_use_clear                       0x00027524   Section        0  nrf_drv_gpiote.o(i.pin_in_use_clear)
    pin_in_use_clear                         0x00027525   Thumb Code     8  nrf_drv_gpiote.o(i.pin_in_use_clear)
    i.power_manage                           0x00027530   Section        0  main.o(i.power_manage)
    power_manage                             0x00027531   Thumb Code    26  main.o(i.power_manage)
    i.queue_free                             0x0002754c   Section        0  nrf_fstorage_sd.o(i.queue_free)
    queue_free                               0x0002754d   Thumb Code    14  nrf_fstorage_sd.o(i.queue_free)
    i.queue_load_next                        0x00027564   Section        0  nrf_fstorage_sd.o(i.queue_load_next)
    queue_load_next                          0x00027565   Thumb Code    30  nrf_fstorage_sd.o(i.queue_load_next)
    i.queue_process                          0x00027590   Section        0  nrf_fstorage_sd.o(i.queue_process)
    queue_process                            0x00027591   Thumb Code   130  nrf_fstorage_sd.o(i.queue_process)
    i.queue_start                            0x0002761c   Section        0  nrf_fstorage_sd.o(i.queue_start)
    queue_start                              0x0002761d   Thumb Code    38  nrf_fstorage_sd.o(i.queue_start)
    i.read                                   0x00027648   Section        0  nrf_fstorage_sd.o(i.read)
    read                                     0x00027649   Thumb Code    28  nrf_fstorage_sd.o(i.read)
    i.record_activate                        0x00027664   Section        0  ble_conn_state.o(i.record_activate)
    record_activate                          0x00027665   Thumb Code    68  ble_conn_state.o(i.record_activate)
    i.record_invalidate                      0x000276ac   Section        0  ble_conn_state.o(i.record_invalidate)
    record_invalidate                        0x000276ad   Thumb Code    24  ble_conn_state.o(i.record_invalidate)
    i.record_purge_disconnected              0x000276c8   Section        0  ble_conn_state.o(i.record_purge_disconnected)
    record_purge_disconnected                0x000276c9   Thumb Code    62  ble_conn_state.o(i.record_purge_disconnected)
    i.record_set_disconnected                0x0002770c   Section        0  ble_conn_state.o(i.record_set_disconnected)
    record_set_disconnected                  0x0002770d   Thumb Code    20  ble_conn_state.o(i.record_set_disconnected)
    i.registered_handler_get                 0x00027724   Section        0  ble_db_discovery.o(i.registered_handler_get)
    registered_handler_get                   0x00027725   Thumb Code    52  ble_db_discovery.o(i.registered_handler_get)
    i.registered_handler_set                 0x00027764   Section        0  ble_db_discovery.o(i.registered_handler_set)
    registered_handler_set                   0x00027765   Thumb Code    58  ble_db_discovery.o(i.registered_handler_set)
    i.rmap                                   0x000277a8   Section        0  nrf_fstorage_sd.o(i.rmap)
    rmap                                     0x000277a9   Thumb Code     6  nrf_fstorage_sd.o(i.rmap)
    i.rtc1_compare0_set                      0x000277b0   Section        0  app_timer.o(i.rtc1_compare0_set)
    rtc1_compare0_set                        0x000277b1   Thumb Code     6  app_timer.o(i.rtc1_compare0_set)
    i.rtc1_counter_get                       0x000277bc   Section        0  app_timer.o(i.rtc1_counter_get)
    rtc1_counter_get                         0x000277bd   Thumb Code     6  app_timer.o(i.rtc1_counter_get)
    i.rtc1_init                              0x000277c8   Section        0  app_timer.o(i.rtc1_init)
    rtc1_init                                0x000277c9   Thumb Code    18  app_timer.o(i.rtc1_init)
    i.rtc1_start                             0x000277e0   Section        0  app_timer.o(i.rtc1_start)
    rtc1_start                               0x000277e1   Thumb Code    48  app_timer.o(i.rtc1_start)
    i.rtc1_stop                              0x0002781c   Section        0  app_timer.o(i.rtc1_stop)
    rtc1_stop                                0x0002781d   Thumb Code    68  app_timer.o(i.rtc1_stop)
    i.rx_byte                                0x00027874   Section        0  nrf_drv_uart.o(i.rx_byte)
    rx_byte                                  0x00027875   Thumb Code    62  nrf_drv_uart.o(i.rx_byte)
    i.rx_done_event                          0x000278b2   Section        0  nrf_drv_uart.o(i.rx_done_event)
    rx_done_event                            0x000278b3   Thumb Code    30  nrf_drv_uart.o(i.rx_done_event)
    i.rx_enable                              0x000278d0   Section        0  nrf_drv_uart.o(i.rx_enable)
    rx_enable                                0x000278d1   Thumb Code    34  nrf_drv_uart.o(i.rx_enable)
    i.scan_start                             0x000278f4   Section        0  main.o(i.scan_start)
    scan_start                               0x000278f5   Thumb Code    56  main.o(i.scan_start)
    i.sd_nvic_EnableIRQ                      0x00027930   Section        0  nrf_sdh.o(i.sd_nvic_EnableIRQ)
    sd_nvic_EnableIRQ                        0x00027931   Thumb Code   124  nrf_sdh.o(i.sd_nvic_EnableIRQ)
    i.sd_nvic_SetPriority                    0x000279b8   Section        0  nrf_sdh.o(i.sd_nvic_SetPriority)
    sd_nvic_SetPriority                      0x000279b9   Thumb Code    72  nrf_sdh.o(i.sd_nvic_SetPriority)
    i.sd_nvic_critical_region_enter          0x00027a08   Section        0  app_util_platform.o(i.sd_nvic_critical_region_enter)
    sd_nvic_critical_region_enter            0x00027a09   Thumb Code    90  app_util_platform.o(i.sd_nvic_critical_region_enter)
    i.sd_state_evt_handler                   0x00027a70   Section        0  nrf_drv_clock.o(i.sd_state_evt_handler)
    sd_state_evt_handler                     0x00027a71   Thumb Code   100  nrf_drv_clock.o(i.sd_state_evt_handler)
    i.sdh_request_observer_notify            0x00027adc   Section        0  nrf_sdh.o(i.sdh_request_observer_notify)
    sdh_request_observer_notify              0x00027add   Thumb Code    56  nrf_sdh.o(i.sdh_request_observer_notify)
    i.sdh_state_observer_notify              0x00027b18   Section        0  nrf_sdh.o(i.sdh_state_observer_notify)
    sdh_state_observer_notify                0x00027b19   Thumb Code    48  nrf_sdh.o(i.sdh_state_observer_notify)
    i.sdk_mapped_flags_bulk_update_by_key    0x00027b4c   Section        0  sdk_mapped_flags.o(i.sdk_mapped_flags_bulk_update_by_key)
    i.sdk_mapped_flags_first_key_index_get   0x00027bc8   Section        0  sdk_mapped_flags.o(i.sdk_mapped_flags_first_key_index_get)
    i.sdk_mapped_flags_get_by_index          0x00027bec   Section        0  sdk_mapped_flags.o(i.sdk_mapped_flags_get_by_index)
    sdk_mapped_flags_get_by_index            0x00027bed   Thumb Code    18  sdk_mapped_flags.o(i.sdk_mapped_flags_get_by_index)
    i.sdk_mapped_flags_key_list_get          0x00027bfe   Section        0  sdk_mapped_flags.o(i.sdk_mapped_flags_key_list_get)
    i.sdk_mapped_flags_n_flags_set           0x00027c40   Section        0  sdk_mapped_flags.o(i.sdk_mapped_flags_n_flags_set)
    i.sdk_mapped_flags_update_by_key         0x00027c60   Section        0  sdk_mapped_flags.o(i.sdk_mapped_flags_update_by_key)
    i.soc_evt_handler                        0x00027c7a   Section        0  nrf_drv_clock.o(i.soc_evt_handler)
    soc_evt_handler                          0x00027c7b   Thumb Code    16  nrf_drv_clock.o(i.soc_evt_handler)
    i.softdevice_evt_irq_disable             0x00027c8c   Section        0  nrf_sdh.o(i.softdevice_evt_irq_disable)
    softdevice_evt_irq_disable               0x00027c8d   Thumb Code    98  nrf_sdh.o(i.softdevice_evt_irq_disable)
    i.softdevices_evt_irq_enable             0x00027cf8   Section        0  nrf_sdh.o(i.softdevices_evt_irq_enable)
    softdevices_evt_irq_enable               0x00027cf9   Thumb Code    30  nrf_sdh.o(i.softdevices_evt_irq_enable)
    i.swi_interrupt_priority_workaround      0x00027d16   Section        0  nrf_sdh.o(i.swi_interrupt_priority_workaround)
    swi_interrupt_priority_workaround        0x00027d17   Thumb Code    60  nrf_sdh.o(i.swi_interrupt_priority_workaround)
    i.ticks_diff_get                         0x00027d52   Section        0  app_timer.o(i.ticks_diff_get)
    ticks_diff_get                           0x00027d53   Thumb Code    10  app_timer.o(i.ticks_diff_get)
    i.timeout_handler_exec                   0x00027d5c   Section        0  app_timer.o(i.timeout_handler_exec)
    timeout_handler_exec                     0x00027d5d   Thumb Code    12  app_timer.o(i.timeout_handler_exec)
    i.timer_init                             0x00027d68   Section        0  main.o(i.timer_init)
    timer_init                               0x00027d69   Thumb Code    28  main.o(i.timer_init)
    i.timer_list_handler                     0x00027d84   Section        0  app_timer.o(i.timer_list_handler)
    timer_list_handler                       0x00027d85   Thumb Code    68  app_timer.o(i.timer_list_handler)
    i.timer_list_handler_sched               0x00027dd4   Section        0  app_timer.o(i.timer_list_handler_sched)
    timer_list_handler_sched                 0x00027dd5   Thumb Code    10  app_timer.o(i.timer_list_handler_sched)
    i.timer_list_insert                      0x00027de0   Section        0  app_timer.o(i.timer_list_insert)
    timer_list_insert                        0x00027de1   Thumb Code    98  app_timer.o(i.timer_list_insert)
    i.timer_list_remove                      0x00027e48   Section        0  app_timer.o(i.timer_list_remove)
    timer_list_remove                        0x00027e49   Thumb Code   118  app_timer.o(i.timer_list_remove)
    i.timer_start_op_schedule                0x00027ed0   Section        0  app_timer.o(i.timer_start_op_schedule)
    timer_start_op_schedule                  0x00027ed1   Thumb Code    94  app_timer.o(i.timer_start_op_schedule)
    i.timer_stop_op_schedule                 0x00027f2e   Section        0  app_timer.o(i.timer_stop_op_schedule)
    timer_stop_op_schedule                   0x00027f2f   Thumb Code    66  app_timer.o(i.timer_stop_op_schedule)
    i.timer_timeouts_check                   0x00027f70   Section        0  app_timer.o(i.timer_timeouts_check)
    timer_timeouts_check                     0x00027f71   Thumb Code   130  app_timer.o(i.timer_timeouts_check)
    i.timer_timeouts_check_sched             0x00028008   Section        0  app_timer.o(i.timer_timeouts_check_sched)
    timer_timeouts_check_sched               0x00028009   Thumb Code    10  app_timer.o(i.timer_timeouts_check_sched)
    i.tx_byte                                0x00028012   Section        0  nrf_drv_uart.o(i.tx_byte)
    tx_byte                                  0x00028013   Thumb Code    38  nrf_drv_uart.o(i.tx_byte)
    i.tx_done_event                          0x00028038   Section        0  nrf_drv_uart.o(i.tx_done_event)
    tx_done_event                            0x00028039   Thumb Code    34  nrf_drv_uart.o(i.tx_done_event)
    i.uart_event_handle                      0x0002805c   Section        0  main.o(i.uart_event_handle)
    i.uart_event_handler                     0x0002811c   Section        0  app_uart_fifo.o(i.uart_event_handler)
    uart_event_handler                       0x0002811d   Thumb Code   184  app_uart_fifo.o(i.uart_event_handler)
    i.uart_init                              0x000281f0   Section        0  main.o(i.uart_init)
    uart_init                                0x000281f1   Thumb Code    74  main.o(i.uart_init)
    i.uart_irq_handler                       0x0002824c   Section        0  nrf_drv_uart.o(i.uart_irq_handler)
    uart_irq_handler                         0x0002824d   Thumb Code   322  nrf_drv_uart.o(i.uart_irq_handler)
    i.uarte_irq_handler                      0x0002838e   Section        0  nrf_drv_uart.o(i.uarte_irq_handler)
    uarte_irq_handler                        0x0002838f   Thumb Code   268  nrf_drv_uart.o(i.uarte_irq_handler)
    i.uninit                                 0x0002849c   Section        0  nrf_fstorage_sd.o(i.uninit)
    uninit                                   0x0002849d   Thumb Code    26  nrf_fstorage_sd.o(i.uninit)
    i.user_op_alloc                          0x000284c0   Section        0  app_timer.o(i.user_op_alloc)
    user_op_alloc                            0x000284c1   Thumb Code    56  app_timer.o(i.user_op_alloc)
    i.user_op_enque                          0x000284fc   Section        0  app_timer.o(i.user_op_enque)
    user_op_enque                            0x000284fd   Thumb Code     6  app_timer.o(i.user_op_enque)
    i.wmap                                   0x00028508   Section        0  nrf_fstorage_sd.o(i.wmap)
    wmap                                     0x00028509   Thumb Code     6  nrf_fstorage_sd.o(i.wmap)
    i.write                                  0x00028510   Section        0  nrf_fstorage_sd.o(i.write)
    write                                    0x00028511   Thumb Code    80  nrf_fstorage_sd.o(i.write)
    i.write_execute                          0x00028564   Section        0  nrf_fstorage_sd.o(i.write_execute)
    write_execute                            0x00028565   Thumb Code    82  nrf_fstorage_sd.o(i.write_execute)
    .constdata                               0x000285bc   Section       48  main.o(.constdata)
    m_target_periph_name                     0x000285bc   Data           6  main.o(.constdata)
    m_scan_params                            0x000285c2   Data           8  main.o(.constdata)
    m_connection_param                       0x000285ca   Data           8  main.o(.constdata)
    .constdata                               0x000285ec   Section        8  boards.o(.constdata)
    m_board_led_list                         0x000285ec   Data           4  boards.o(.constdata)
    m_board_btn_list                         0x000285f0   Data           4  boards.o(.constdata)
    .constdata                               0x000285f4   Section       44  bsp.o(.constdata)
    m_leds_timer_id                          0x000285f4   Data           4  bsp.o(.constdata)
    m_alert_timer_id                         0x000285f8   Data           4  bsp.o(.constdata)
    m_button_timer_id                        0x000285fc   Data           4  bsp.o(.constdata)
    app_buttons                              0x00028600   Data          32  bsp.o(.constdata)
    .constdata                               0x00028620   Section      124  ble_db_discovery.o(.constdata)
    .constdata                               0x0002869c   Section       22  nrf_ble_gatt.o(.constdata)
    .constdata                               0x000286b4   Section       40  ble_nus_c.o(.constdata)
    .constdata                               0x000286dc   Section       71  nrf_drv_gpiote.o(.constdata)
    __func__                                 0x000286e0   Data          20  nrf_drv_gpiote.o(.constdata)
    __func__                                 0x000286f4   Data          24  nrf_drv_gpiote.o(.constdata)
    __func__                                 0x0002870c   Data          23  nrf_drv_gpiote.o(.constdata)
    .constdata                               0x00028724   Section        8  app_button.o(.constdata)
    m_detection_delay_timer_id               0x00028724   Data           4  app_button.o(.constdata)
    .constdata                               0x0002872c   Section       48  nrf_fstorage_sd.o(.constdata)
    m_flash_info                             0x0002872c   Data          12  nrf_fstorage_sd.o(.constdata)
    m_fifo                                   0x00028738   Data           4  nrf_fstorage_sd.o(.constdata)
    .constdata                               0x0002875c   Section       32  app_uart_fifo.o(.constdata)
    .constdata                               0x0002877c   Section       88  nrf_sdh.o(.constdata)
    sdh_req_observers_array                  0x0002877c   Data          16  nrf_sdh.o(.constdata)
    sdh_req_observers                        0x0002878c   Data          12  nrf_sdh.o(.constdata)
    sdh_state_observers_array                0x00028798   Data          16  nrf_sdh.o(.constdata)
    sdh_state_observers                      0x000287a8   Data          12  nrf_sdh.o(.constdata)
    sdh_stack_observers_array                0x000287b4   Data          16  nrf_sdh.o(.constdata)
    sdh_stack_observers                      0x000287c4   Data          12  nrf_sdh.o(.constdata)
    .constdata                               0x000287d4   Section       48  nrf_sdh_ble.o(.constdata)
    sdh_ble_observers_array                  0x000287d4   Data          32  nrf_sdh_ble.o(.constdata)
    sdh_ble_observers                        0x000287f4   Data          12  nrf_sdh_ble.o(.constdata)
    .constdata                               0x00028804   Section       28  nrf_sdh_soc.o(.constdata)
    sdh_soc_observers_array                  0x00028804   Data          16  nrf_sdh_soc.o(.constdata)
    sdh_soc_observers                        0x00028814   Data          12  nrf_sdh_soc.o(.constdata)
    sdh_ble_observers0                       0x00028840   Section        8  ble_conn_state.o(sdh_ble_observers0)
    __tagsym$$used                           0x00028840   Number         0  ble_conn_state.o(sdh_ble_observers0)
    m_ble_evt_observer                       0x00028840   Data           8  ble_conn_state.o(sdh_ble_observers0)
    sdh_ble_observers1                       0x00028848   Section       16  main.o(sdh_ble_observers1)
    __tagsym$$used                           0x00028848   Number         0  main.o(sdh_ble_observers1)
    m_gatt_obs                               0x00028848   Data           8  main.o(sdh_ble_observers1)
    __tagsym$$used                           0x00028850   Number         0  main.o(sdh_ble_observers1)
    m_db_disc_obs                            0x00028850   Data           8  main.o(sdh_ble_observers1)
    sdh_ble_observers1                       0x00028858   Section        8  bsp_btn_ble.o(sdh_ble_observers1)
    __tagsym$$used                           0x00028858   Number         0  bsp_btn_ble.o(sdh_ble_observers1)
    m_ble_observer                           0x00028858   Data           8  bsp_btn_ble.o(sdh_ble_observers1)
    sdh_ble_observers2                       0x00028860   Section      160  main.o(sdh_ble_observers2)
    __tagsym$$used                           0x00028860   Number         0  main.o(sdh_ble_observers2)
    m_ble_nus_c_obs                          0x00028860   Data         160  main.o(sdh_ble_observers2)
    sdh_ble_observers3                       0x00028900   Section        8  main.o(sdh_ble_observers3)
    __tagsym$$used                           0x00028900   Number         0  main.o(sdh_ble_observers3)
    m_ble_observer                           0x00028900   Data           8  main.o(sdh_ble_observers3)
    sdh_req_observers0                       0x00028908   Section        8  nrf_fstorage_sd.o(sdh_req_observers0)
    __tagsym$$used                           0x00028908   Number         0  nrf_fstorage_sd.o(sdh_req_observers0)
    sdh_soc_observers0                       0x00028910   Section        8  nrf_drv_clock.o(sdh_soc_observers0)
    __tagsym$$used                           0x00028910   Number         0  nrf_drv_clock.o(sdh_soc_observers0)
    m_soc_evt_observer                       0x00028910   Data           8  nrf_drv_clock.o(sdh_soc_observers0)
    sdh_soc_observers0                       0x00028918   Section        8  nrf_fstorage_sd.o(sdh_soc_observers0)
    __tagsym$$used                           0x00028918   Number         0  nrf_fstorage_sd.o(sdh_soc_observers0)
    m_sys_obs                                0x00028918   Data           8  nrf_fstorage_sd.o(sdh_soc_observers0)
    sdh_stack_observers0                     0x00028920   Section        8  nrf_sdh_ble.o(sdh_stack_observers0)
    __tagsym$$used                           0x00028920   Number         0  nrf_sdh_ble.o(sdh_stack_observers0)
    m_nrf_sdh_ble_evts_poll                  0x00028920   Data           8  nrf_sdh_ble.o(sdh_stack_observers0)
    sdh_stack_observers0                     0x00028928   Section        8  nrf_sdh_soc.o(sdh_stack_observers0)
    __tagsym$$used                           0x00028928   Number         0  nrf_sdh_soc.o(sdh_stack_observers0)
    m_nrf_sdh_soc_evts_poll                  0x00028928   Data           8  nrf_sdh_soc.o(sdh_stack_observers0)
    sdh_state_observers0                     0x00028930   Section        8  nrf_drv_clock.o(sdh_state_observers0)
    __tagsym$$used                           0x00028930   Number         0  nrf_drv_clock.o(sdh_state_observers0)
    m_sd_state_observer                      0x00028930   Data           8  nrf_drv_clock.o(sdh_state_observers0)
    sdh_state_observers0                     0x00028938   Section        8  nrf_fstorage_sd.o(sdh_state_observers0)
    __tagsym$$used                           0x00028938   Number         0  nrf_fstorage_sd.o(sdh_state_observers0)
    m_state_obs                              0x00028938   Data           8  nrf_fstorage_sd.o(sdh_state_observers0)
    .data                                    0x20007d28   Section      728  main.o(.data)
    m_db_disc                                0x20007d28   Data         716  main.o(.data)
    m_ble_nus_max_data_len                   0x20007ff4   Data           2  main.o(.data)
    index                                    0x20007ff6   Data           2  main.o(.data)
    buttons                                  0x20007ff8   Data           8  main.o(.data)
    .data                                    0x20008000   Section       21  bsp.o(.data)
    m_stable_state                           0x20008000   Data           1  bsp.o(.data)
    m_leds_clear                             0x20008001   Data           1  bsp.o(.data)
    m_indication_type                        0x20008004   Data           4  bsp.o(.data)
    m_alert_on                               0x20008008   Data           1  bsp.o(.data)
    m_registered_callback                    0x2000800c   Data           4  bsp.o(.data)
    current_long_push_pin_no                 0x20008010   Data           1  bsp.o(.data)
    release_event_at_push                    0x20008011   Data           4  bsp.o(.data)
    .data                                    0x20008018   Section        8  bsp_btn_ble.o(.data)
    m_error_handler                          0x20008018   Data           4  bsp_btn_ble.o(.data)
    m_num_connections                        0x2000801c   Data           4  bsp_btn_ble.o(.data)
    .data                                    0x20008020   Section       13  ble_db_discovery.o(.data)
    m_evt_handler                            0x20008020   Data           4  ble_db_discovery.o(.data)
    m_pending_usr_evt_index                  0x20008024   Data           4  ble_db_discovery.o(.data)
    m_num_of_handlers_reg                    0x20008028   Data           4  ble_db_discovery.o(.data)
    m_initialized                            0x2000802c   Data           1  ble_db_discovery.o(.data)
    .data                                    0x20008030   Section       20  app_button.o(.data)
    mp_buttons                               0x20008030   Data           4  app_button.o(.data)
    m_button_count                           0x20008034   Data           1  app_button.o(.data)
    m_detection_delay                        0x20008038   Data           4  app_button.o(.data)
    m_pin_state                              0x2000803c   Data           4  app_button.o(.data)
    m_pin_transition                         0x20008040   Data           4  app_button.o(.data)
    .data                                    0x20008044   Section       20  app_timer.o(.data)
    mp_timer_id_head                         0x20008044   Data           4  app_timer.o(.data)
    m_ticks_latest                           0x20008048   Data           4  app_timer.o(.data)
    m_ticks_elapsed                          0x2000804c   Data           8  app_timer.o(.data)
    m_ticks_elapsed_q_read_ind               0x20008054   Data           1  app_timer.o(.data)
    m_ticks_elapsed_q_write_ind              0x20008055   Data           1  app_timer.o(.data)
    m_rtc1_running                           0x20008056   Data           1  app_timer.o(.data)
    m_rtc1_reset                             0x20008057   Data           1  app_timer.o(.data)
    .data                                    0x20008058   Section        8  nrf_fstorage_sd.o(.data)
    m_p_cur_op                               0x20008058   Data           4  nrf_fstorage_sd.o(.data)
    m_iget_ctx                               0x2000805c   Data           4  nrf_fstorage_sd.o(.data)
    .data                                    0x20008060   Section       15  app_uart_fifo.o(.data)
    app_uart_inst                            0x20008060   Data           8  app_uart_fifo.o(.data)
    m_event_handler                          0x20008068   Data           4  app_uart_fifo.o(.data)
    tx_buffer                                0x2000806c   Data           1  app_uart_fifo.o(.data)
    rx_buffer                                0x2000806d   Data           1  app_uart_fifo.o(.data)
    m_rx_ovf                                 0x2000806e   Data           1  app_uart_fifo.o(.data)
    .data                                    0x2000806f   Section        3  nrf_sdh.o(.data)
    m_nrf_sdh_enabled                        0x2000806f   Data           1  nrf_sdh.o(.data)
    m_nrf_sdh_suspended                      0x20008070   Data           1  nrf_sdh.o(.data)
    m_nrf_sdh_continue                       0x20008071   Data           1  nrf_sdh.o(.data)
    .data                                    0x20008074   Section        4  system_nrf52.o(.data)
    __tagsym$$used                           0x20008074   Number         0  system_nrf52.o(.data)
    .bss                                     0x20008078   Section     1024  main.o(.bss)
    m_gatt                                   0x20008078   Data         172  main.o(.bss)
    m_ble_nus_c                              0x20008124   Data         320  main.o(.bss)
    data_array                               0x20008264   Data          20  main.o(.bss)
    rx_buf                                   0x20008278   Data         256  main.o(.bss)
    tx_buf                                   0x20008378   Data         256  main.o(.bss)
    .bss                                     0x20008478   Section      108  bsp.o(.bss)
    m_leds_timer_id_data                     0x20008478   Data          32  bsp.o(.bss)
    m_alert_timer_id_data                    0x20008498   Data          32  bsp.o(.bss)
    m_events_list                            0x200084b8   Data          12  bsp.o(.bss)
    m_button_timer_id_data                   0x200084c4   Data          32  bsp.o(.bss)
    .bss                                     0x200084e4   Section      184  ble_conn_state.o(.bss)
    m_bcs                                    0x200084e4   Data         184  ble_conn_state.o(.bss)
    .bss                                     0x2000859c   Section      792  ble_db_discovery.o(.bss)
    m_registered_handlers                    0x2000859c   Data          24  ble_db_discovery.o(.bss)
    m_pending_user_evts                      0x200085b4   Data         768  ble_db_discovery.o(.bss)
    .bss                                     0x200088b4   Section       20  nrf_drv_clock.o(.bss)
    m_clock_cb                               0x200088b4   Data          20  nrf_drv_clock.o(.bss)
    .bss                                     0x200088c8   Section       88  nrf_drv_gpiote.o(.bss)
    m_cb                                     0x200088c8   Data          88  nrf_drv_gpiote.o(.bss)
    .bss                                     0x20008920   Section       32  nrf_drv_uart.o(.bss)
    m_cb                                     0x20008920   Data          32  nrf_drv_uart.o(.bss)
    .bss                                     0x20008940   Section       32  app_button.o(.bss)
    m_detection_delay_timer_id_data          0x20008940   Data          32  app_button.o(.bss)
    .bss                                     0x20008960   Section      268  app_timer.o(.bss)
    m_op_queue                               0x20008960   Data         268  app_timer.o(.bss)
    .bss                                     0x20008a6c   Section       12  app_util_platform.o(.bss)
    .bss                                     0x20008a78   Section      176  nrf_fstorage_sd.o(.bss)
    m_fifo_data                              0x20008a78   Data         140  nrf_fstorage_sd.o(.bss)
    m_fifo_inst                              0x20008b04   Data          16  nrf_fstorage_sd.o(.bss)
    m_flags                                  0x20008b14   Data          20  nrf_fstorage_sd.o(.bss)
    .bss                                     0x20008b28   Section       32  app_uart_fifo.o(.bss)
    m_rx_fifo                                0x20008b28   Data          16  app_uart_fifo.o(.bss)
    m_tx_fifo                                0x20008b38   Data          16  app_uart_fifo.o(.bss)
    STACK                                    0x20008b48   Section     8192  arm_startup_nrf52.o(STACK)

    Global Symbols

    Symbol Name                              Value     Ov Type        Size  Object(Section)

    BuildAttributes$$THM_ISAv4$E$P$D$K$B$S$7EM$VFPi3$EXTD16$VFPS$VFMA$PE$A:L22UL41UL21$X:L11$S22US41US21$IEEE1$IW$USESV6$~STKCKD$USESV7$~SHL$OSPACE$EBA8$MICROLIB$REQ8$PRES8$EABIv2 0x00000000   Number         0  anon$$obj.o ABSOLUTE
    __ARM_use_no_argv                        0x00000000   Number         0  main.o ABSOLUTE
    __cpp_initialize__aeabi_                  - Undefined Weak Reference
    __cxa_finalize                            - Undefined Weak Reference
    _clock_init                               - Undefined Weak Reference
    _microlib_exit                            - Undefined Weak Reference
    fs_data$$Base                             - Undefined Reference
    fs_data$$Limit                            - Undefined Reference
    sdh_req_observers1$$Base                  - Undefined Reference
    sdh_req_observers1$$Limit                 - Undefined Reference
    sdh_soc_observers1$$Base                  - Undefined Reference
    sdh_soc_observers1$$Limit                 - Undefined Reference
    sdh_stack_observers1$$Base                - Undefined Reference
    sdh_stack_observers1$$Limit               - Undefined Reference
    sdh_state_observers1$$Base                - Undefined Reference
    sdh_state_observers1$$Limit               - Undefined Reference
    __Vectors_Size                           0x00000200   Number         0  arm_startup_nrf52.o ABSOLUTE
    __Vectors                                0x00023000   Data           4  arm_startup_nrf52.o(RESET)
    __Vectors_End                            0x00023200   Data           0  arm_startup_nrf52.o(RESET)
    __main                                   0x00023201   Thumb Code     0  entry.o(.ARM.Collect$$$$00000000)
    _main_stk                                0x00023201   Thumb Code     0  entry2.o(.ARM.Collect$$$$00000001)
    _main_scatterload                        0x00023205   Thumb Code     0  entry5.o(.ARM.Collect$$$$00000004)
    __main_after_scatterload                 0x00023209   Thumb Code     0  entry5.o(.ARM.Collect$$$$00000004)
    _main_clock                              0x00023209   Thumb Code     0  entry7b.o(.ARM.Collect$$$$00000008)
    _main_cpp_init                           0x00023209   Thumb Code     0  entry8b.o(.ARM.Collect$$$$0000000A)
    _main_init                               0x00023209   Thumb Code     0  entry9a.o(.ARM.Collect$$$$0000000B)
    __rt_final_cpp                           0x00023211   Thumb Code     0  entry10a.o(.ARM.Collect$$$$0000000D)
    __rt_final_exit                          0x00023211   Thumb Code     0  entry11a.o(.ARM.Collect$$$$0000000F)
    __asm___12_nrf_atfifo_c_51f461e1__nrf_atfifo_wspace_req 0x00023215   Thumb Code    56  nrf_atfifo.o(.emb_text)
    __asm___12_nrf_atfifo_c_51f461e1__nrf_atfifo_wspace_close 0x0002324d   Thumb Code    18  nrf_atfifo.o(.emb_text)
    __asm___12_nrf_atfifo_c_51f461e1__nrf_atfifo_rspace_req 0x0002325f   Thumb Code    58  nrf_atfifo.o(.emb_text)
    __asm___12_nrf_atfifo_c_51f461e1__nrf_atfifo_rspace_close 0x00023299   Thumb Code    18  nrf_atfifo.o(.emb_text)
    __asm___12_nrf_atfifo_c_51f461e1__nrf_atfifo_space_clear 0x000232ab   Thumb Code    50  nrf_atfifo.o(.emb_text)
    __asm___17_nrf_fstorage_sd_c_6e7dbfe9__nrf_atomic_internal_mov 0x000232dd   Thumb Code    24  nrf_fstorage_sd.o(.emb_text)
    __asm___17_nrf_fstorage_sd_c_6e7dbfe9__nrf_atomic_internal_orr 0x000232f5   Thumb Code    26  nrf_fstorage_sd.o(.emb_text)
    __asm___17_nrf_fstorage_sd_c_6e7dbfe9__nrf_atomic_internal_and 0x0002330f   Thumb Code    26  nrf_fstorage_sd.o(.emb_text)
    __asm___17_nrf_fstorage_sd_c_6e7dbfe9__nrf_atomic_internal_eor 0x00023329   Thumb Code    26  nrf_fstorage_sd.o(.emb_text)
    __asm___17_nrf_fstorage_sd_c_6e7dbfe9__nrf_atomic_internal_add 0x00023343   Thumb Code    26  nrf_fstorage_sd.o(.emb_text)
    __asm___17_nrf_fstorage_sd_c_6e7dbfe9__nrf_atomic_internal_sub 0x0002335d   Thumb Code    26  nrf_fstorage_sd.o(.emb_text)
    Reset_Handler                            0x00023379   Thumb Code     8  arm_startup_nrf52.o(.text)
    NMI_Handler                              0x00023381   Thumb Code     2  arm_startup_nrf52.o(.text)
    HardFault_Handler                        0x00023383   Thumb Code     2  arm_startup_nrf52.o(.text)
    MemoryManagement_Handler                 0x00023385   Thumb Code     2  arm_startup_nrf52.o(.text)
    BusFault_Handler                         0x00023387   Thumb Code     2  arm_startup_nrf52.o(.text)
    UsageFault_Handler                       0x00023389   Thumb Code     2  arm_startup_nrf52.o(.text)
    SVC_Handler                              0x0002338b   Thumb Code     2  arm_startup_nrf52.o(.text)
    DebugMon_Handler                         0x0002338d   Thumb Code     2  arm_startup_nrf52.o(.text)
    PendSV_Handler                           0x0002338f   Thumb Code     2  arm_startup_nrf52.o(.text)
    SysTick_Handler                          0x00023391   Thumb Code     2  arm_startup_nrf52.o(.text)
    CCM_AAR_IRQHandler                       0x00023393   Thumb Code     0  arm_startup_nrf52.o(.text)
    COMP_LPCOMP_IRQHandler                   0x00023393   Thumb Code     0  arm_startup_nrf52.o(.text)
    ECB_IRQHandler                           0x00023393   Thumb Code     0  arm_startup_nrf52.o(.text)
    FPU_IRQHandler                           0x00023393   Thumb Code     0  arm_startup_nrf52.o(.text)
    I2S_IRQHandler                           0x00023393   Thumb Code     0  arm_startup_nrf52.o(.text)
    MWU_IRQHandler                           0x00023393   Thumb Code     0  arm_startup_nrf52.o(.text)
    NFCT_IRQHandler                          0x00023393   Thumb Code     0  arm_startup_nrf52.o(.text)
    PDM_IRQHandler                           0x00023393   Thumb Code     0  arm_startup_nrf52.o(.text)
    PWM0_IRQHandler                          0x00023393   Thumb Code     0  arm_startup_nrf52.o(.text)
    PWM1_IRQHandler                          0x00023393   Thumb Code     0  arm_startup_nrf52.o(.text)
    PWM2_IRQHandler                          0x00023393   Thumb Code     0  arm_startup_nrf52.o(.text)
    QDEC_IRQHandler                          0x00023393   Thumb Code     0  arm_startup_nrf52.o(.text)
    RADIO_IRQHandler                         0x00023393   Thumb Code     0  arm_startup_nrf52.o(.text)
    RNG_IRQHandler                           0x00023393   Thumb Code     0  arm_startup_nrf52.o(.text)
    RTC0_IRQHandler                          0x00023393   Thumb Code     0  arm_startup_nrf52.o(.text)
    RTC2_IRQHandler                          0x00023393   Thumb Code     0  arm_startup_nrf52.o(.text)
    SAADC_IRQHandler                         0x00023393   Thumb Code     0  arm_startup_nrf52.o(.text)
    SPIM0_SPIS0_TWIM0_TWIS0_SPI0_TWI0_IRQHandler 0x00023393   Thumb Code     0  arm_startup_nrf52.o(.text)
    SPIM1_SPIS1_TWIM1_TWIS1_SPI1_TWI1_IRQHandler 0x00023393   Thumb Code     0  arm_startup_nrf52.o(.text)
    SPIM2_SPIS2_SPI2_IRQHandler              0x00023393   Thumb Code     0  arm_startup_nrf52.o(.text)
    SWI1_EGU1_IRQHandler                     0x00023393   Thumb Code     0  arm_startup_nrf52.o(.text)
    SWI3_EGU3_IRQHandler                     0x00023393   Thumb Code     0  arm_startup_nrf52.o(.text)
    SWI4_EGU4_IRQHandler                     0x00023393   Thumb Code     0  arm_startup_nrf52.o(.text)
    SWI5_EGU5_IRQHandler                     0x00023393   Thumb Code     0  arm_startup_nrf52.o(.text)
    TEMP_IRQHandler                          0x00023393   Thumb Code     0  arm_startup_nrf52.o(.text)
    TIMER0_IRQHandler                        0x00023393   Thumb Code     0  arm_startup_nrf52.o(.text)
    TIMER1_IRQHandler                        0x00023393   Thumb Code     0  arm_startup_nrf52.o(.text)
    TIMER2_IRQHandler                        0x00023393   Thumb Code     0  arm_startup_nrf52.o(.text)
    TIMER3_IRQHandler                        0x00023393   Thumb Code     0  arm_startup_nrf52.o(.text)
    TIMER4_IRQHandler                        0x00023393   Thumb Code     0  arm_startup_nrf52.o(.text)
    WDT_IRQHandler                           0x00023393   Thumb Code     0  arm_startup_nrf52.o(.text)
    __aeabi_uldivmod                         0x0002339d   Thumb Code    98  uldiv.o(.text)
    __aeabi_memcpy                           0x000233ff   Thumb Code    36  memcpya.o(.text)
    __aeabi_memcpy4                          0x000233ff   Thumb Code     0  memcpya.o(.text)
    __aeabi_memcpy8                          0x000233ff   Thumb Code     0  memcpya.o(.text)
    __aeabi_memset                           0x00023423   Thumb Code    14  memseta.o(.text)
    __aeabi_memset4                          0x00023423   Thumb Code     0  memseta.o(.text)
    __aeabi_memset8                          0x00023423   Thumb Code     0  memseta.o(.text)
    __aeabi_memclr                           0x00023431   Thumb Code     4  memseta.o(.text)
    __aeabi_memclr4                          0x00023431   Thumb Code     0  memseta.o(.text)
    __aeabi_memclr8                          0x00023431   Thumb Code     0  memseta.o(.text)
    _memset$wrapper                          0x00023435   Thumb Code    18  memseta.o(.text)
    strlen                                   0x00023447   Thumb Code    14  strlen.o(.text)
    memcmp                                   0x00023455   Thumb Code    26  memcmp.o(.text)
    __aeabi_llsl                             0x0002346f   Thumb Code    30  llshl.o(.text)
    _ll_shift_l                              0x0002346f   Thumb Code     0  llshl.o(.text)
    __aeabi_llsr                             0x0002348d   Thumb Code    32  llushr.o(.text)
    _ll_ushift_r                             0x0002348d   Thumb Code     0  llushr.o(.text)
    __scatterload                            0x000234ad   Thumb Code    28  init.o(.text)
    __scatterload_rt2                        0x000234ad   Thumb Code     0  init.o(.text)
    __decompress                             0x000234d1   Thumb Code     0  __dczerorl.o(.text)
    __decompress0                            0x000234d1   Thumb Code    58  __dczerorl.o(.text)
    GPIOTE_IRQHandler                        0x0002350d   Thumb Code   554  nrf_drv_gpiote.o(i.GPIOTE_IRQHandler)
    POWER_CLOCK_IRQHandler                   0x000237b5   Thumb Code    74  nrf_drv_clock.o(i.POWER_CLOCK_IRQHandler)
    RTC1_IRQHandler                          0x00023805   Thumb Code    44  app_timer.o(i.RTC1_IRQHandler)
    SWI0_EGU0_IRQHandler                     0x00023839   Thumb Code     8  app_timer.o(i.SWI0_EGU0_IRQHandler)
    SWI2_EGU2_IRQHandler                     0x00023841   Thumb Code     8  nrf_sdh.o(i.SWI2_EGU2_IRQHandler)
    SystemCoreClockUpdate                    0x00023849   Thumb Code     8  system_nrf52.o(i.SystemCoreClockUpdate)
    SystemInit                               0x00023859   Thumb Code   596  system_nrf52.o(i.SystemInit)
    UARTE0_UART0_IRQHandler                  0x00023af1   Thumb Code    28  nrf_drv_uart.o(i.UARTE0_UART0_IRQHandler)
    __scatterload_copy                       0x00023b15   Thumb Code    14  handlers.o(i.__scatterload_copy)
    __scatterload_null                       0x00023b23   Thumb Code     2  handlers.o(i.__scatterload_null)
    __scatterload_zeroinit                   0x00023b25   Thumb Code    14  handlers.o(i.__scatterload_zeroinit)
    app_button_disable                       0x00023c1d   Thumb Code    38  app_button.o(i.app_button_disable)
    app_button_init                          0x00023c51   Thumb Code   132  app_button.o(i.app_button_init)
    app_error_fault_handler                  0x00023cf9   Thumb Code    80  app_error_weak.o(i.app_error_fault_handler)
    app_error_handler_bare                   0x00023d51   Thumb Code    28  app_error.o(i.app_error_handler_bare)
    app_fifo_get                             0x00023d6d   Thumb Code    30  app_fifo.o(i.app_fifo_get)
    app_fifo_init                            0x00023d8b   Thumb Code    36  app_fifo.o(i.app_fifo_init)
    app_fifo_put                             0x00023daf   Thumb Code    34  app_fifo.o(i.app_fifo_put)
    app_timer_create                         0x00023dd1   Thumb Code    56  app_timer.o(i.app_timer_create)
    app_timer_init                           0x00023e0d   Thumb Code    70  app_timer.o(i.app_timer_init)
    app_timer_start                          0x00023e69   Thumb Code    78  app_timer.o(i.app_timer_start)
    app_timer_stop                           0x00023ebd   Thumb Code    44  app_timer.o(i.app_timer_stop)
    app_uart_get                             0x00023eed   Thumb Code    66  app_uart_fifo.o(i.app_uart_get)
    app_uart_init                            0x00023f41   Thumb Code   200  app_uart_fifo.o(i.app_uart_init)
    app_uart_put                             0x00024029   Thumb Code    50  app_uart_fifo.o(i.app_uart_put)
    app_util_critical_region_enter           0x00024069   Thumb Code    12  app_util_platform.o(i.app_util_critical_region_enter)
    app_util_critical_region_exit            0x00024075   Thumb Code    62  app_util_platform.o(i.app_util_critical_region_exit)
    bcs_internal_state_reset                 0x000241a1   Thumb Code    12  ble_conn_state.o(i.bcs_internal_state_reset)
    ble_conn_state_init                      0x000241b1   Thumb Code     8  ble_conn_state.o(i.ble_conn_state_init)
    ble_conn_state_n_centrals                0x000241b9   Thumb Code    20  ble_conn_state.o(i.ble_conn_state_n_centrals)
    ble_db_discovery_evt_register            0x000241d1   Thumb Code    42  ble_db_discovery.o(i.ble_db_discovery_evt_register)
    ble_db_discovery_init                    0x00024205   Thumb Code    40  ble_db_discovery.o(i.ble_db_discovery_init)
    ble_db_discovery_on_ble_evt              0x0002423d   Thumb Code   144  ble_db_discovery.o(i.ble_db_discovery_on_ble_evt)
    ble_db_discovery_start                   0x000242d1   Thumb Code    62  ble_db_discovery.o(i.ble_db_discovery_start)
    ble_nus_c_handles_assign                 0x00024615   Thumb Code    34  ble_nus_c.o(i.ble_nus_c_handles_assign)
    ble_nus_c_init                           0x00024639   Thumb Code    94  ble_nus_c.o(i.ble_nus_c_init)
    ble_nus_c_on_ble_evt                     0x0002469d   Thumb Code   102  ble_nus_c.o(i.ble_nus_c_on_ble_evt)
    ble_nus_c_on_db_disc_evt                 0x00024703   Thumb Code   148  ble_nus_c.o(i.ble_nus_c_on_db_disc_evt)
    ble_nus_c_string_send                    0x00024799   Thumb Code    68  ble_nus_c.o(i.ble_nus_c_string_send)
    ble_nus_c_tx_notif_enable                0x000247e1   Thumb Code    44  ble_nus_c.o(i.ble_nus_c_tx_notif_enable)
    bsp_board_led_invert                     0x000248bd   Thumb Code    44  boards.o(i.bsp_board_led_invert)
    bsp_board_led_off                        0x000248ed   Thumb Code    16  boards.o(i.bsp_board_led_off)
    bsp_board_led_on                         0x00024901   Thumb Code    16  boards.o(i.bsp_board_led_on)
    bsp_board_led_state_get                  0x00024915   Thumb Code    44  boards.o(i.bsp_board_led_state_get)
    bsp_board_leds_init                      0x00024945   Thumb Code    42  boards.o(i.bsp_board_leds_init)
    bsp_board_leds_off                       0x00024975   Thumb Code    20  boards.o(i.bsp_board_leds_off)
    bsp_board_leds_on                        0x00024989   Thumb Code    20  boards.o(i.bsp_board_leds_on)
    bsp_board_pin_to_button_idx              0x0002499d   Thumb Code    32  boards.o(i.bsp_board_pin_to_button_idx)
    bsp_event_to_button_action_assign        0x00024a85   Thumb Code    86  bsp.o(i.bsp_event_to_button_action_assign)
    bsp_indication_set                       0x00024ae1   Thumb Code    28  bsp.o(i.bsp_indication_set)
    main                                     0x00025cb1   Thumb Code    58  main.o(i.main)
    nrf_atfifo_clear                         0x00025ceb   Thumb Code    22  nrf_atfifo.o(i.nrf_atfifo_clear)
    nrf_atfifo_init                          0x00025d01   Thumb Code    40  nrf_atfifo.o(i.nrf_atfifo_init)
    nrf_atfifo_item_alloc                    0x00025d29   Thumb Code    28  nrf_atfifo.o(i.nrf_atfifo_item_alloc)
    nrf_atfifo_item_free                     0x00025d45   Thumb Code    28  nrf_atfifo.o(i.nrf_atfifo_item_free)
    nrf_atfifo_item_get                      0x00025d61   Thumb Code    28  nrf_atfifo.o(i.nrf_atfifo_item_get)
    nrf_atfifo_item_put                      0x00025d7d   Thumb Code    28  nrf_atfifo.o(i.nrf_atfifo_item_put)
    nrf_ble_gatt_init                        0x00025daf   Thumb Code    54  nrf_ble_gatt.o(i.nrf_ble_gatt_init)
    nrf_ble_gatt_on_ble_evt                  0x00025de5   Thumb Code   174  nrf_ble_gatt.o(i.nrf_ble_gatt_on_ble_evt)
    nrf_drv_clock_init                       0x00025f79   Thumb Code    94  nrf_drv_clock.o(i.nrf_drv_clock_init)
    nrf_drv_clock_lfclk_release              0x00025fe1   Thumb Code    42  nrf_drv_clock.o(i.nrf_drv_clock_lfclk_release)
    nrf_drv_common_irq_enable                0x00026011   Thumb Code    84  nrf_drv_common.o(i.nrf_drv_common_irq_enable)
    nrf_drv_gpiote_in_event_disable          0x0002607d   Thumb Code    74  nrf_drv_gpiote.o(i.nrf_drv_gpiote_in_event_disable)
    nrf_drv_gpiote_in_init                   0x000260d1   Thumb Code   206  nrf_drv_gpiote.o(i.nrf_drv_gpiote_in_init)
    nrf_drv_gpiote_in_is_set                 0x000261ad   Thumb Code    20  nrf_drv_gpiote.o(i.nrf_drv_gpiote_in_is_set)
    nrf_drv_gpiote_init                      0x000261c1   Thumb Code    90  nrf_drv_gpiote.o(i.nrf_drv_gpiote_init)
    nrf_drv_gpiote_is_init                   0x00026221   Thumb Code    16  nrf_drv_gpiote.o(i.nrf_drv_gpiote_is_init)
    nrf_drv_uart_init                        0x00026249   Thumb Code   126  nrf_drv_uart.o(i.nrf_drv_uart_init)
    nrf_drv_uart_rx                          0x000262cd   Thumb Code   208  nrf_drv_uart.o(i.nrf_drv_uart_rx)
    nrf_drv_uart_rx_enable                   0x000263a1   Thumb Code    46  nrf_drv_uart.o(i.nrf_drv_uart_rx_enable)
    nrf_drv_uart_tx                          0x00026569   Thumb Code    96  nrf_drv_uart.o(i.nrf_drv_uart_tx)
    nrf_drv_uart_tx_in_progress              0x000266d5   Thumb Code    22  nrf_drv_uart.o(i.nrf_drv_uart_tx_in_progress)
    nrf_fstorage_sdh_req_handler             0x000266f1   Thumb Code    22  nrf_fstorage_sd.o(i.nrf_fstorage_sdh_req_handler)
    nrf_fstorage_sdh_state_handler           0x0002670d   Thumb Code    40  nrf_fstorage_sd.o(i.nrf_fstorage_sdh_state_handler)
    nrf_fstorage_sys_evt_handler             0x00026739   Thumb Code   116  nrf_fstorage_sd.o(i.nrf_fstorage_sys_evt_handler)
    nrf_sdh_ble_app_ram_start_get            0x0002696d   Thumb Code    18  nrf_sdh_ble.o(i.nrf_sdh_ble_app_ram_start_get)
    nrf_sdh_ble_default_cfg_set              0x00026985   Thumb Code   160  nrf_sdh_ble.o(i.nrf_sdh_ble_default_cfg_set)
    nrf_sdh_ble_enable                       0x00026a25   Thumb Code    16  nrf_sdh_ble.o(i.nrf_sdh_ble_enable)
    nrf_sdh_disable_request                  0x00026a95   Thumb Code    70  nrf_sdh.o(i.nrf_sdh_disable_request)
    nrf_sdh_enable_request                   0x00026ae5   Thumb Code    92  nrf_sdh.o(i.nrf_sdh_enable_request)
    nrf_sdh_evts_poll                        0x00026b55   Thumb Code    44  nrf_sdh.o(i.nrf_sdh_evts_poll)
    nrf_sdh_is_enabled                       0x00026b85   Thumb Code     6  nrf_sdh.o(i.nrf_sdh_is_enabled)
    nrf_sdh_request_continue                 0x00026b91   Thumb Code    30  nrf_sdh.o(i.nrf_sdh_request_continue)
    nrf_section_iter_init                    0x00026c13   Thumb Code    20  nrf_section_iter.o(i.nrf_section_iter_init)
    nrf_section_iter_next                    0x00026c55   Thumb Code    46  nrf_section_iter.o(i.nrf_section_iter_next)
    sdk_mapped_flags_bulk_update_by_key      0x00027b4d   Thumb Code   124  sdk_mapped_flags.o(i.sdk_mapped_flags_bulk_update_by_key)
    sdk_mapped_flags_first_key_index_get     0x00027bc9   Thumb Code    36  sdk_mapped_flags.o(i.sdk_mapped_flags_first_key_index_get)
    sdk_mapped_flags_key_list_get            0x00027bff   Thumb Code    66  sdk_mapped_flags.o(i.sdk_mapped_flags_key_list_get)
    sdk_mapped_flags_n_flags_set             0x00027c41   Thumb Code    32  sdk_mapped_flags.o(i.sdk_mapped_flags_n_flags_set)
    sdk_mapped_flags_update_by_key           0x00027c61   Thumb Code    26  sdk_mapped_flags.o(i.sdk_mapped_flags_update_by_key)
    uart_event_handle                        0x0002805d   Thumb Code   174  main.o(i.uart_event_handle)
    nrf_fstorage_sd                          0x0002873c   Data          32  nrf_fstorage_sd.o(.constdata)
    m_ram_start                              0x00028800   Data           4  nrf_sdh_ble.o(.constdata)
    Region$$Table$$Base                      0x00028820   Number         0  anon$$obj.o(Region$$Table)
    Region$$Table$$Limit                     0x00028840   Number         0  anon$$obj.o(Region$$Table)
    sdh_ble_observers0$$Base                 0x00028840   Number         0  ble_conn_state.o(sdh_ble_observers0)
    sdh_ble_observers0$$Limit                0x00028848   Number         0  ble_conn_state.o(sdh_ble_observers0)
    sdh_ble_observers1$$Base                 0x00028848   Number         0  main.o(sdh_ble_observers1)
    sdh_ble_observers1$$Limit                0x00028860   Number         0  bsp_btn_ble.o(sdh_ble_observers1)
    sdh_ble_observers2$$Base                 0x00028860   Number         0  main.o(sdh_ble_observers2)
    sdh_ble_observers2$$Limit                0x00028900   Number         0  main.o(sdh_ble_observers2)
    sdh_ble_observers3$$Base                 0x00028900   Number         0  main.o(sdh_ble_observers3)
    m_req_obs                                0x00028908   Data           8  nrf_fstorage_sd.o(sdh_req_observers0)
    sdh_ble_observers3$$Limit                0x00028908   Number         0  main.o(sdh_ble_observers3)
    sdh_req_observers0$$Base                 0x00028908   Number         0  nrf_fstorage_sd.o(sdh_req_observers0)
    sdh_req_observers0$$Limit                0x00028910   Number         0  nrf_fstorage_sd.o(sdh_req_observers0)
    sdh_soc_observers0$$Base                 0x00028910   Number         0  nrf_drv_clock.o(sdh_soc_observers0)
    sdh_soc_observers0$$Limit                0x00028920   Number         0  nrf_fstorage_sd.o(sdh_soc_observers0)
    sdh_stack_observers0$$Base               0x00028920   Number         0  nrf_sdh_ble.o(sdh_stack_observers0)
    sdh_stack_observers0$$Limit              0x00028930   Number         0  nrf_sdh_soc.o(sdh_stack_observers0)
    sdh_state_observers0$$Base               0x00028930   Number         0  nrf_drv_clock.o(sdh_state_observers0)
    sdh_state_observers0$$Limit              0x00028940   Number         0  nrf_fstorage_sd.o(sdh_state_observers0)
    Image$$RW_IRAM1$$Base                    0x20007d28   Number         0  anon$$obj.o ABSOLUTE
    SystemCoreClock                          0x20008074   Data           4  system_nrf52.o(.data)
    nrf_nvic_state                           0x20008a6c   Data          12  app_util_platform.o(.bss)
    __initial_sp                             0x2000ab48   Data           0  arm_startup_nrf52.o(STACK)



==============================================================================

Memory Map of the image

  Image Entry point : 0x00023201

  Load Region LR_IROM1 (Base: 0x00023000, Size: 0x00005c90, Max: 0x0005d000, ABSOLUTE, COMPRESSED[0x0000595c])

    Execution Region ER_IROM1 (Base: 0x00023000, Size: 0x00005940, Max: 0x0005d000, ABSOLUTE)

    Base Addr    Size         Type   Attr      Idx    E Section Name        Object

    0x00023000   0x00000200   Data   RO         4439    RESET               arm_startup_nrf52.o
    0x00023200   0x00000000   Code   RO         4535  * .ARM.Collect$$$$00000000  mc_w.l(entry.o)
    0x00023200   0x00000004   Code   RO         4559    .ARM.Collect$$$$00000001  mc_w.l(entry2.o)
    0x00023204   0x00000004   Code   RO         4562    .ARM.Collect$$$$00000004  mc_w.l(entry5.o)
    0x00023208   0x00000000   Code   RO         4564    .ARM.Collect$$$$00000008  mc_w.l(entry7b.o)
    0x00023208   0x00000000   Code   RO         4566    .ARM.Collect$$$$0000000A  mc_w.l(entry8b.o)
    0x00023208   0x00000008   Code   RO         4567    .ARM.Collect$$$$0000000B  mc_w.l(entry9a.o)
    0x00023210   0x00000000   Code   RO         4569    .ARM.Collect$$$$0000000D  mc_w.l(entry10a.o)
    0x00023210   0x00000000   Code   RO         4571    .ARM.Collect$$$$0000000F  mc_w.l(entry11a.o)
    0x00023210   0x00000004   Code   RO         4560    .ARM.Collect$$$$00002712  mc_w.l(entry2.o)
    0x00023214   0x000000c8   Code   RO         2952    .emb_text           nrf_atfifo.o
    0x000232dc   0x0000009a   Code   RO         3231    .emb_text           nrf_fstorage_sd.o
    0x00023376   0x00000002   PAD
    0x00023378   0x00000024   Code   RO         4440    .text               arm_startup_nrf52.o
    0x0002339c   0x00000062   Code   RO         4543    .text               mc_w.l(uldiv.o)
    0x000233fe   0x00000024   Code   RO         4545    .text               mc_w.l(memcpya.o)
    0x00023422   0x00000024   Code   RO         4547    .text               mc_w.l(memseta.o)
    0x00023446   0x0000000e   Code   RO         4549    .text               mc_w.l(strlen.o)
    0x00023454   0x0000001a   Code   RO         4553    .text               mc_w.l(memcmp.o)
    0x0002346e   0x0000001e   Code   RO         4574    .text               mc_w.l(llshl.o)
    0x0002348c   0x00000020   Code   RO         4576    .text               mc_w.l(llushr.o)
    0x000234ac   0x00000024   Code   RO         4579    .text               mc_w.l(init.o)
    0x000234d0   0x0000003a   Code   RO         4589    .text               mc_w.l(__dczerorl.o)
    0x0002350a   0x00000002   PAD
    0x0002350c   0x00000238   Code   RO         1805    i.GPIOTE_IRQHandler  nrf_drv_gpiote.o
    0x00023744   0x00000018   Code   RO         2605    i.NVIC_ClearPendingIRQ  app_timer.o
    0x0002375c   0x00000016   Code   RO         2606    i.NVIC_EnableIRQ    app_timer.o
    0x00023772   0x00000002   PAD
    0x00023774   0x00000018   Code   RO         2607    i.NVIC_SetPendingIRQ  app_timer.o
    0x0002378c   0x00000028   Code   RO         2608    i.NVIC_SetPriority  app_timer.o
    0x000237b4   0x00000050   Code   RO         1567    i.POWER_CLOCK_IRQHandler  nrf_drv_clock.o
    0x00023804   0x00000034   Code   RO         2609    i.RTC1_IRQHandler   app_timer.o
    0x00023838   0x00000008   Code   RO         2610    i.SWI0_EGU0_IRQHandler  app_timer.o
    0x00023840   0x00000008   Code   RO         4213    i.SWI2_EGU2_IRQHandler  nrf_sdh.o
    0x00023848   0x00000010   Code   RO         4447    i.SystemCoreClockUpdate  system_nrf52.o
    0x00023858   0x00000298   Code   RO         4448    i.SystemInit        system_nrf52.o
    0x00023af0   0x00000024   Code   RO         2099    i.UARTE0_UART0_IRQHandler  nrf_drv_uart.o
    0x00023b14   0x0000000e   Code   RO         4583    i.__scatterload_copy  mc_w.l(handlers.o)
    0x00023b22   0x00000002   Code   RO         4584    i.__scatterload_null  mc_w.l(handlers.o)
    0x00023b24   0x0000000e   Code   RO         4585    i.__scatterload_zeroinit  mc_w.l(handlers.o)
    0x00023b32   0x00000002   PAD
    0x00023b34   0x00000038   Code   RO         4214    i.__sd_nvic_app_accessible_irq  nrf_sdh.o
    0x00023b6c   0x0000000c   Code   RO         2829    i.__sd_nvic_irq_disable  app_util_platform.o
    0x00023b78   0x0000001c   Code   RO         4215    i.__sd_nvic_is_app_accessible_priority  nrf_sdh.o
    0x00023b94   0x00000034   Code   RO            4    i.adv_report_parse  main.o
    0x00023bc8   0x00000054   Code   RO          613    i.advertising_buttons_configure  bsp_btn_ble.o
    0x00023c1c   0x00000034   Code   RO         2410    i.app_button_disable  app_button.o
    0x00023c50   0x000000a8   Code   RO         2412    i.app_button_init   app_button.o
    0x00023cf8   0x00000058   Code   RO         2512    i.app_error_fault_handler  app_error_weak.o
    0x00023d50   0x0000001c   Code   RO         2473    i.app_error_handler_bare  app_error.o
    0x00023d6c   0x0000001e   Code   RO         3669    i.app_fifo_get      app_fifo.o
    0x00023d8a   0x00000024   Code   RO         3670    i.app_fifo_init     app_fifo.o
    0x00023dae   0x00000022   Code   RO         3672    i.app_fifo_put      app_fifo.o
    0x00023dd0   0x0000003c   Code   RO         2613    i.app_timer_create  app_timer.o
    0x00023e0c   0x0000005c   Code   RO         2614    i.app_timer_init    app_timer.o
    0x00023e68   0x00000054   Code   RO         2617    i.app_timer_start   app_timer.o
    0x00023ebc   0x00000030   Code   RO         2618    i.app_timer_stop    app_timer.o
    0x00023eec   0x00000054   Code   RO         3596    i.app_uart_get      app_uart_fifo.o
    0x00023f40   0x000000e8   Code   RO         3597    i.app_uart_init     app_uart_fifo.o
    0x00024028   0x00000040   Code   RO         3598    i.app_uart_put      app_uart_fifo.o
    0x00024068   0x0000000c   Code   RO         2830    i.app_util_critical_region_enter  app_util_platform.o
    0x00024074   0x00000048   Code   RO         2831    i.app_util_critical_region_exit  app_util_platform.o
    0x000240bc   0x000000e4   Code   RO         2100    i.apply_config      nrf_drv_uart.o
    0x000241a0   0x00000010   Code   RO          966    i.bcs_internal_state_reset  ble_conn_state.o
    0x000241b0   0x00000008   Code   RO          971    i.ble_conn_state_init  ble_conn_state.o
    0x000241b8   0x00000018   Code   RO          973    i.ble_conn_state_n_centrals  ble_conn_state.o
    0x000241d0   0x00000034   Code   RO         1144    i.ble_db_discovery_evt_register  ble_db_discovery.o
    0x00024204   0x00000038   Code   RO         1145    i.ble_db_discovery_init  ble_db_discovery.o
    0x0002423c   0x00000094   Code   RO         1146    i.ble_db_discovery_on_ble_evt  ble_db_discovery.o
    0x000242d0   0x00000048   Code   RO         1147    i.ble_db_discovery_start  ble_db_discovery.o
    0x00024318   0x00000180   Code   RO            6    i.ble_evt_handler   main.o
    0x00024498   0x00000078   Code   RO          614    i.ble_evt_handler   bsp_btn_ble.o
    0x00024510   0x000000a0   Code   RO          984    i.ble_evt_handler   ble_conn_state.o
    0x000245b0   0x00000064   Code   RO            7    i.ble_nus_c_evt_handler  main.o
    0x00024614   0x00000022   Code   RO         1483    i.ble_nus_c_handles_assign  ble_nus_c.o
    0x00024636   0x00000002   PAD
    0x00024638   0x00000064   Code   RO         1484    i.ble_nus_c_init    ble_nus_c.o
    0x0002469c   0x00000066   Code   RO         1485    i.ble_nus_c_on_ble_evt  ble_nus_c.o
    0x00024702   0x00000094   Code   RO         1486    i.ble_nus_c_on_db_disc_evt  ble_nus_c.o
    0x00024796   0x00000002   PAD
    0x00024798   0x00000048   Code   RO         1487    i.ble_nus_c_string_send  ble_nus_c.o
    0x000247e0   0x0000002c   Code   RO         1488    i.ble_nus_c_tx_notif_enable  ble_nus_c.o
    0x0002480c   0x0000005a   Code   RO            8    i.ble_nus_chars_received_uart_print  main.o
    0x00024866   0x00000056   Code   RO            9    i.ble_stack_init    main.o
    0x000248bc   0x00000030   Code   RO          386    i.bsp_board_led_invert  boards.o
    0x000248ec   0x00000014   Code   RO          387    i.bsp_board_led_off  boards.o
    0x00024900   0x00000014   Code   RO          388    i.bsp_board_led_on  boards.o
    0x00024914   0x00000030   Code   RO          389    i.bsp_board_led_state_get  boards.o
    0x00024944   0x00000030   Code   RO          390    i.bsp_board_leds_init  boards.o
    0x00024974   0x00000014   Code   RO          391    i.bsp_board_leds_off  boards.o
    0x00024988   0x00000014   Code   RO          392    i.bsp_board_leds_on  boards.o
    0x0002499c   0x00000024   Code   RO          393    i.bsp_board_pin_to_button_idx  boards.o
    0x000249c0   0x000000c4   Code   RO          497    i.bsp_button_event_handler  bsp.o
    0x00024a84   0x0000005c   Code   RO          501    i.bsp_event_to_button_action_assign  bsp.o
    0x00024ae0   0x00000020   Code   RO          502    i.bsp_indication_set  bsp.o
    0x00024b00   0x0000037c   Code   RO          504    i.bsp_led_indication  bsp.o
    0x00024e7c   0x00000024   Code   RO           10    i.button_event_handler  main.o
    0x00024ea0   0x00000028   Code   RO           11    i.buttons_init      main.o
    0x00024ec8   0x00000030   Code   RO         1489    i.cccd_configure    ble_nus_c.o
    0x00024ef8   0x00000020   Code   RO         1806    i.channel_free      nrf_drv_gpiote.o
    0x00024f18   0x00000010   Code   RO         1807    i.channel_handler_get  nrf_drv_gpiote.o
    0x00024f28   0x00000080   Code   RO         1808    i.channel_port_alloc  nrf_drv_gpiote.o
    0x00024fa8   0x0000000c   Code   RO         1809    i.channel_port_get  nrf_drv_gpiote.o
    0x00024fb4   0x00000060   Code   RO         1148    i.characteristics_discover  ble_db_discovery.o
    0x00025014   0x00000030   Code   RO         1568    i.clock_clk_started_notify  nrf_drv_clock.o
    0x00025044   0x00000090   Code   RO         2620    i.compare_reg_update  app_timer.o
    0x000250d4   0x00000054   Code   RO          617    i.connection_buttons_configure  bsp_btn_ble.o
    0x00025128   0x00000030   Code   RO         1348    i.data_length_update  nrf_ble_gatt.o
    0x00025158   0x00000018   Code   RO           12    i.db_disc_handler   main.o
    0x00025170   0x00000024   Code   RO           13    i.db_discovery_init  main.o
    0x00025194   0x000000b6   Code   RO         1149    i.descriptors_discover  ble_db_discovery.o
    0x0002524a   0x00000002   PAD
    0x0002524c   0x0000008c   Code   RO         2414    i.detection_delay_timeout_handler  app_button.o
    0x000252d8   0x000000a4   Code   RO         1150    i.discovery_complete_evt_trigger  ble_db_discovery.o
    0x0002537c   0x00000048   Code   RO         1151    i.discovery_error_evt_trigger  ble_db_discovery.o
    0x000253c4   0x00000084   Code   RO         1152    i.discovery_start   ble_db_discovery.o
    0x00025448   0x00000064   Code   RO         2621    i.elapsed_ticks_acquire  app_timer.o
    0x000254ac   0x00000058   Code   RO         3232    i.erase             nrf_fstorage_sd.o
    0x00025504   0x0000000e   Code   RO         3233    i.erase_execute     nrf_fstorage_sd.o
    0x00025512   0x00000002   PAD
    0x00025514   0x00000054   Code   RO         4449    i.errata_108        system_nrf52.o
    0x00025568   0x00000054   Code   RO         4450    i.errata_12         system_nrf52.o
    0x000255bc   0x00000054   Code   RO         4451    i.errata_136        system_nrf52.o
    0x00025610   0x00000030   Code   RO         4452    i.errata_16         system_nrf52.o
    0x00025640   0x00000020   Code   RO         4453    i.errata_182        system_nrf52.o
    0x00025660   0x00000054   Code   RO         4454    i.errata_31         system_nrf52.o
    0x000256b4   0x00000030   Code   RO         4455    i.errata_32         system_nrf52.o
    0x000256e4   0x00000054   Code   RO         4456    i.errata_36         system_nrf52.o
    0x00025738   0x00000030   Code   RO         4457    i.errata_37         system_nrf52.o
    0x00025768   0x00000030   Code   RO         4458    i.errata_57         system_nrf52.o
    0x00025798   0x00000030   Code   RO         4459    i.errata_66         system_nrf52.o
    0x000257c8   0x00000064   Code   RO         3234    i.event_send        nrf_fstorage_sd.o
    0x0002582c   0x00000058   Code   RO         2622    i.expired_timers_handler  app_timer.o
    0x00025884   0x00000018   Code   RO         3675    i.fifo_get          app_fifo.o
    0x0002589c   0x0000000a   Code   RO         3599    i.fifo_length       app_uart_fifo.o
    0x000258a6   0x0000000a   Code   RO         3676    i.fifo_length       app_fifo.o
    0x000258b0   0x00000012   Code   RO         3677    i.fifo_peek         app_fifo.o
    0x000258c2   0x00000012   Code   RO         3678    i.fifo_put          app_fifo.o
    0x000258d4   0x00000024   Code   RO           14    i.gatt_init         main.o
    0x000258f8   0x00000080   Code   RO         2415    i.gpiote_event_handler  app_button.o
    0x00025978   0x00000050   Code   RO         3235    i.init              nrf_fstorage_sd.o
    0x000259c8   0x0000008c   Code   RO         2101    i.interrupts_enable  nrf_drv_uart.o
    0x00025a54   0x00000014   Code   RO         3236    i.is_busy           nrf_fstorage_sd.o
    0x00025a68   0x00000024   Code   RO         1153    i.is_char_discovery_reqd  ble_db_discovery.o
    0x00025a8c   0x0000005e   Code   RO         1154    i.is_desc_discovery_reqd  ble_db_discovery.o
    0x00025aea   0x0000000c   Code   RO         1571    i.item_dequeue      nrf_drv_clock.o
    0x00025af6   0x00000006   Code   RO           15    i.led_status_send_to_all  main.o
    0x00025afc   0x00000008   Code   RO           16    i.leds_init         main.o
    0x00025b04   0x00000028   Code   RO          508    i.leds_off          bsp.o
    0x00025b2c   0x0000001c   Code   RO         1574    i.lfclk_stop        nrf_drv_clock.o
    0x00025b48   0x00000014   Code   RO         1349    i.link_init         nrf_ble_gatt.o
    0x00025b5c   0x0000013c   Code   RO         2623    i.list_insertions_handler  app_timer.o
    0x00025c98   0x00000018   Code   RO           17    i.log_init          main.o
    0x00025cb0   0x0000003a   Code   RO           18    i.main              main.o
    0x00025cea   0x00000016   Code   RO         2954    i.nrf_atfifo_clear  nrf_atfifo.o
    0x00025d00   0x00000028   Code   RO         2956    i.nrf_atfifo_init   nrf_atfifo.o
    0x00025d28   0x0000001c   Code   RO         2957    i.nrf_atfifo_item_alloc  nrf_atfifo.o
    0x00025d44   0x0000001c   Code   RO         2958    i.nrf_atfifo_item_free  nrf_atfifo.o
    0x00025d60   0x0000001c   Code   RO         2959    i.nrf_atfifo_item_get  nrf_atfifo.o
    0x00025d7c   0x0000001c   Code   RO         2960    i.nrf_atfifo_item_put  nrf_atfifo.o
    0x00025d98   0x00000016   Code   RO         1810    i.nrf_bitmask_bit_is_set  nrf_drv_gpiote.o
    0x00025dae   0x00000036   Code   RO         1355    i.nrf_ble_gatt_init  nrf_ble_gatt.o
    0x00025de4   0x000000ae   Code   RO         1356    i.nrf_ble_gatt_on_ble_evt  nrf_ble_gatt.o
    0x00025e92   0x00000012   Code   RO         1575    i.nrf_clock_event_check  nrf_drv_clock.o
    0x00025ea4   0x00000012   Code   RO         1576    i.nrf_clock_event_clear  nrf_drv_clock.o
    0x00025eb6   0x00000002   PAD
    0x00025eb8   0x0000000c   Code   RO         1578    i.nrf_clock_int_disable  nrf_drv_clock.o
    0x00025ec4   0x00000010   Code   RO         1580    i.nrf_clock_lf_is_running  nrf_drv_clock.o
    0x00025ed4   0x00000008   Code   RO         1581    i.nrf_clock_task_trigger  nrf_drv_clock.o
    0x00025edc   0x0000009c   Code   RO         2624    i.nrf_delay_us      app_timer.o
    0x00025f78   0x00000068   Code   RO         1587    i.nrf_drv_clock_init  nrf_drv_clock.o
    0x00025fe0   0x00000030   Code   RO         1591    i.nrf_drv_clock_lfclk_release  nrf_drv_clock.o
    0x00026010   0x00000060   Code   RO         1769    i.nrf_drv_common_irq_enable  nrf_drv_common.o
    0x00026070   0x0000000a   Code   RO         2103    i.nrf_drv_get_IRQn  nrf_drv_uart.o
    0x0002607a   0x00000002   PAD
    0x0002607c   0x00000054   Code   RO         1814    i.nrf_drv_gpiote_in_event_disable  nrf_drv_gpiote.o
    0x000260d0   0x000000dc   Code   RO         1816    i.nrf_drv_gpiote_in_init  nrf_drv_gpiote.o
    0x000261ac   0x00000014   Code   RO         1817    i.nrf_drv_gpiote_in_is_set  nrf_drv_gpiote.o
    0x000261c0   0x00000060   Code   RO         1819    i.nrf_drv_gpiote_init  nrf_drv_gpiote.o
    0x00026220   0x00000014   Code   RO         1820    i.nrf_drv_gpiote_is_init  nrf_drv_gpiote.o
    0x00026234   0x00000014   Code   RO         2104    i.nrf_drv_is_in_RAM  nrf_drv_uart.o
    0x00026248   0x00000084   Code   RO         2106    i.nrf_drv_uart_init  nrf_drv_uart.o
    0x000262cc   0x000000d4   Code   RO         2107    i.nrf_drv_uart_rx   nrf_drv_uart.o
    0x000263a0   0x00000034   Code   RO         2110    i.nrf_drv_uart_rx_enable  nrf_drv_uart.o
    0x000263d4   0x000000cc   Code   RO         2111    i.nrf_drv_uart_rx_for_uart  nrf_drv_uart.o
    0x000264a0   0x000000c8   Code   RO         2112    i.nrf_drv_uart_rx_for_uarte  nrf_drv_uart.o
    0x00026568   0x00000064   Code   RO         2114    i.nrf_drv_uart_tx   nrf_drv_uart.o
    0x000265cc   0x0000008c   Code   RO         2116    i.nrf_drv_uart_tx_for_uart  nrf_drv_uart.o
    0x00026658   0x0000007c   Code   RO         2117    i.nrf_drv_uart_tx_for_uarte  nrf_drv_uart.o
    0x000266d4   0x0000001c   Code   RO         2118    i.nrf_drv_uart_tx_in_progress  nrf_drv_uart.o
    0x000266f0   0x0000001c   Code   RO         3237    i.nrf_fstorage_sdh_req_handler  nrf_fstorage_sd.o
    0x0002670c   0x0000002c   Code   RO         3238    i.nrf_fstorage_sdh_state_handler  nrf_fstorage_sd.o
    0x00026738   0x0000007c   Code   RO         3239    i.nrf_fstorage_sys_evt_handler  nrf_fstorage_sd.o
    0x000267b4   0x00000028   Code   RO          395    i.nrf_gpio_cfg      boards.o
    0x000267dc   0x00000028   Code   RO         1834    i.nrf_gpio_cfg      nrf_drv_gpiote.o
    0x00026804   0x00000028   Code   RO         2120    i.nrf_gpio_cfg      nrf_drv_uart.o
    0x0002682c   0x0000001a   Code   RO         2122    i.nrf_gpio_cfg_input  nrf_drv_uart.o
    0x00026846   0x00000018   Code   RO         2123    i.nrf_gpio_cfg_output  nrf_drv_uart.o
    0x0002685e   0x00000032   Code   RO         1836    i.nrf_gpio_cfg_sense_set  nrf_drv_gpiote.o
    0x00026890   0x00000018   Code   RO         1838    i.nrf_gpio_pin_read  nrf_drv_gpiote.o
    0x000268a8   0x00000016   Code   RO         2124    i.nrf_gpio_pin_set  nrf_drv_uart.o
    0x000268be   0x0000003a   Code   RO          396    i.nrf_gpio_pin_write  boards.o
    0x000268f8   0x00000028   Code   RO         1840    i.nrf_gpio_ports_read  nrf_drv_gpiote.o
    0x00026920   0x0000000c   Code   RO         1841    i.nrf_gpiote_event_addr_get  nrf_drv_gpiote.o
    0x0002692c   0x0000001c   Code   RO         1842    i.nrf_gpiote_event_clear  nrf_drv_gpiote.o
    0x00026948   0x00000016   Code   RO         1843    i.nrf_gpiote_event_is_set  nrf_drv_gpiote.o
    0x0002695e   0x00000002   PAD
    0x00026960   0x0000000c   Code   RO         1844    i.nrf_gpiote_int_enable  nrf_drv_gpiote.o
    0x0002696c   0x00000018   Code   RO         4354    i.nrf_sdh_ble_app_ram_start_get  nrf_sdh_ble.o
    0x00026984   0x000000a0   Code   RO         4355    i.nrf_sdh_ble_default_cfg_set  nrf_sdh_ble.o
    0x00026a24   0x00000010   Code   RO         4356    i.nrf_sdh_ble_enable  nrf_sdh_ble.o
    0x00026a34   0x00000060   Code   RO         4357    i.nrf_sdh_ble_evts_poll  nrf_sdh_ble.o
    0x00026a94   0x00000050   Code   RO         4216    i.nrf_sdh_disable_request  nrf_sdh.o
    0x00026ae4   0x00000070   Code   RO         4217    i.nrf_sdh_enable_request  nrf_sdh.o
    0x00026b54   0x00000030   Code   RO         4218    i.nrf_sdh_evts_poll  nrf_sdh.o
    0x00026b84   0x0000000c   Code   RO         4219    i.nrf_sdh_is_enabled  nrf_sdh.o
    0x00026b90   0x00000028   Code   RO         4221    i.nrf_sdh_request_continue  nrf_sdh.o
    0x00026bb8   0x00000054   Code   RO         4409    i.nrf_sdh_soc_evts_poll  nrf_sdh_soc.o
    0x00026c0c   0x00000006   Code   RO         4224    i.nrf_section_iter_get  nrf_sdh.o
    0x00026c12   0x00000014   Code   RO         3461    i.nrf_section_iter_init  nrf_section_iter.o
    0x00026c26   0x0000002e   Code   RO         3462    i.nrf_section_iter_item_set  nrf_section_iter.o
    0x00026c54   0x0000002e   Code   RO         3463    i.nrf_section_iter_next  nrf_section_iter.o
    0x00026c82   0x0000000c   Code   RO         2125    i.nrf_uart_errorsrc_get_and_clear  nrf_drv_uart.o
    0x00026c8e   0x0000000e   Code   RO         2126    i.nrf_uart_event_check  nrf_drv_uart.o
    0x00026c9c   0x0000000e   Code   RO         2127    i.nrf_uart_event_clear  nrf_drv_uart.o
    0x00026caa   0x0000000a   Code   RO         2128    i.nrf_uart_hwfc_pins_set  nrf_drv_uart.o
    0x00026cb4   0x00000006   Code   RO         2129    i.nrf_uart_int_disable  nrf_drv_uart.o
    0x00026cba   0x00000006   Code   RO         2130    i.nrf_uart_int_enable  nrf_drv_uart.o
    0x00026cc0   0x00000012   Code   RO         2131    i.nrf_uart_int_enable_check  nrf_drv_uart.o
    0x00026cd2   0x00000006   Code   RO         2132    i.nrf_uart_task_trigger  nrf_drv_uart.o
    0x00026cd8   0x0000000a   Code   RO         2133    i.nrf_uart_txrx_pins_set  nrf_drv_uart.o
    0x00026ce2   0x0000000c   Code   RO         2134    i.nrf_uarte_errorsrc_get_and_clear  nrf_drv_uart.o
    0x00026cee   0x0000000e   Code   RO         2135    i.nrf_uarte_event_check  nrf_drv_uart.o
    0x00026cfc   0x0000000e   Code   RO         2136    i.nrf_uarte_event_clear  nrf_drv_uart.o
    0x00026d0a   0x0000000c   Code   RO         2137    i.nrf_uarte_hwfc_pins_set  nrf_drv_uart.o
    0x00026d16   0x00000006   Code   RO         2138    i.nrf_uarte_int_disable  nrf_drv_uart.o
    0x00026d1c   0x00000006   Code   RO         2139    i.nrf_uarte_int_enable  nrf_drv_uart.o
    0x00026d22   0x0000000a   Code   RO         2140    i.nrf_uarte_rx_amount_get  nrf_drv_uart.o
    0x00026d2c   0x00000006   Code   RO         2141    i.nrf_uarte_task_trigger  nrf_drv_uart.o
    0x00026d32   0x0000000e   Code   RO         2142    i.nrf_uarte_txrx_pins_set  nrf_drv_uart.o
    0x00026d40   0x0000003c   Code   RO           19    i.nus_c_init        main.o
    0x00026d7c   0x00000088   Code   RO           20    i.on_adv_report     main.o
    0x00026e04   0x00000180   Code   RO         1155    i.on_characteristic_discovery_rsp  ble_db_discovery.o
    0x00026f84   0x00000066   Code   RO         1357    i.on_connected_evt  nrf_ble_gatt.o
    0x00026fea   0x00000002   PAD
    0x00026fec   0x00000058   Code   RO         1358    i.on_data_length_update_evt  nrf_ble_gatt.o
    0x00027044   0x00000044   Code   RO         1359    i.on_data_length_update_request_evt  nrf_ble_gatt.o
    0x00027088   0x00000130   Code   RO         1156    i.on_descriptor_discovery_rsp  ble_db_discovery.o
    0x000271b8   0x0000001e   Code   RO         1157    i.on_disconnected   ble_db_discovery.o
    0x000271d6   0x00000014   Code   RO         1360    i.on_disconnected_evt  nrf_ble_gatt.o
    0x000271ea   0x00000002   PAD
    0x000271ec   0x00000070   Code   RO         1361    i.on_exchange_mtu_request_evt  nrf_ble_gatt.o
    0x0002725c   0x00000068   Code   RO         1362    i.on_exchange_mtu_rsp_evt  nrf_ble_gatt.o
    0x000272c4   0x00000038   Code   RO         1490    i.on_hvx            ble_nus_c.o
    0x000272fc   0x00000024   Code   RO         3240    i.on_operation_failure  nrf_fstorage_sd.o
    0x00027320   0x00000060   Code   RO         3241    i.on_operation_success  nrf_fstorage_sd.o
    0x00027380   0x00000080   Code   RO         1158    i.on_primary_srv_discovery_rsp  ble_db_discovery.o
    0x00027400   0x0000009c   Code   RO         1159    i.on_srv_disc_completion  ble_db_discovery.o
    0x0002749c   0x00000034   Code   RO         1160    i.pending_user_evts_send  ble_db_discovery.o
    0x000274d0   0x0000001c   Code   RO         1847    i.pin_in_use_by_gpiote  nrf_drv_gpiote.o
    0x000274ec   0x00000018   Code   RO         1848    i.pin_in_use_by_port  nrf_drv_gpiote.o
    0x00027504   0x00000020   Code   RO         1849    i.pin_in_use_by_te  nrf_drv_gpiote.o
    0x00027524   0x0000000c   Code   RO         1850    i.pin_in_use_clear  nrf_drv_gpiote.o
    0x00027530   0x0000001a   Code   RO           21    i.power_manage      main.o
    0x0002754a   0x00000002   PAD
    0x0002754c   0x00000018   Code   RO         3242    i.queue_free        nrf_fstorage_sd.o
    0x00027564   0x0000002c   Code   RO         3243    i.queue_load_next   nrf_fstorage_sd.o
    0x00027590   0x0000008c   Code   RO         3244    i.queue_process     nrf_fstorage_sd.o
    0x0002761c   0x0000002c   Code   RO         3245    i.queue_start       nrf_fstorage_sd.o
    0x00027648   0x0000001c   Code   RO         3246    i.read              nrf_fstorage_sd.o
    0x00027664   0x00000048   Code   RO          985    i.record_activate   ble_conn_state.o
    0x000276ac   0x0000001c   Code   RO          986    i.record_invalidate  ble_conn_state.o
    0x000276c8   0x00000044   Code   RO          987    i.record_purge_disconnected  ble_conn_state.o
    0x0002770c   0x00000018   Code   RO          988    i.record_set_disconnected  ble_conn_state.o
    0x00027724   0x00000040   Code   RO         1161    i.registered_handler_get  ble_db_discovery.o
    0x00027764   0x00000044   Code   RO         1162    i.registered_handler_set  ble_db_discovery.o
    0x000277a8   0x00000006   Code   RO         3247    i.rmap              nrf_fstorage_sd.o
    0x000277ae   0x00000002   PAD
    0x000277b0   0x0000000c   Code   RO         2625    i.rtc1_compare0_set  app_timer.o
    0x000277bc   0x0000000c   Code   RO         2626    i.rtc1_counter_get  app_timer.o
    0x000277c8   0x00000018   Code   RO         2627    i.rtc1_init         app_timer.o
    0x000277e0   0x0000003c   Code   RO         2628    i.rtc1_start        app_timer.o
    0x0002781c   0x00000058   Code   RO         2629    i.rtc1_stop         app_timer.o
    0x00027874   0x0000003e   Code   RO         2144    i.rx_byte           nrf_drv_uart.o
    0x000278b2   0x0000001e   Code   RO         2145    i.rx_done_event     nrf_drv_uart.o
    0x000278d0   0x00000022   Code   RO         2146    i.rx_enable         nrf_drv_uart.o
    0x000278f2   0x00000002   PAD
    0x000278f4   0x0000003c   Code   RO           22    i.scan_start        main.o
    0x00027930   0x00000088   Code   RO         4225    i.sd_nvic_EnableIRQ  nrf_sdh.o
    0x000279b8   0x00000050   Code   RO         4226    i.sd_nvic_SetPriority  nrf_sdh.o
    0x00027a08   0x00000068   Code   RO         2836    i.sd_nvic_critical_region_enter  app_util_platform.o
    0x00027a70   0x0000006c   Code   RO         1594    i.sd_state_evt_handler  nrf_drv_clock.o
    0x00027adc   0x0000003c   Code   RO         4227    i.sdh_request_observer_notify  nrf_sdh.o
    0x00027b18   0x00000034   Code   RO         4228    i.sdh_state_observer_notify  nrf_sdh.o
    0x00027b4c   0x0000007c   Code   RO         3529    i.sdk_mapped_flags_bulk_update_by_key  sdk_mapped_flags.o
    0x00027bc8   0x00000024   Code   RO         3530    i.sdk_mapped_flags_first_key_index_get  sdk_mapped_flags.o
    0x00027bec   0x00000012   Code   RO         3531    i.sdk_mapped_flags_get_by_index  sdk_mapped_flags.o
    0x00027bfe   0x00000042   Code   RO         3534    i.sdk_mapped_flags_key_list_get  sdk_mapped_flags.o
    0x00027c40   0x00000020   Code   RO         3535    i.sdk_mapped_flags_n_flags_set  sdk_mapped_flags.o
    0x00027c60   0x0000001a   Code   RO         3536    i.sdk_mapped_flags_update_by_key  sdk_mapped_flags.o
    0x00027c7a   0x00000010   Code   RO         1595    i.soc_evt_handler   nrf_drv_clock.o
    0x00027c8a   0x00000002   PAD
    0x00027c8c   0x0000006c   Code   RO         4229    i.softdevice_evt_irq_disable  nrf_sdh.o
    0x00027cf8   0x0000001e   Code   RO         4230    i.softdevices_evt_irq_enable  nrf_sdh.o
    0x00027d16   0x0000003c   Code   RO         4231    i.swi_interrupt_priority_workaround  nrf_sdh.o
    0x00027d52   0x0000000a   Code   RO         2630    i.ticks_diff_get    app_timer.o
    0x00027d5c   0x0000000c   Code   RO         2631    i.timeout_handler_exec  app_timer.o
    0x00027d68   0x0000001c   Code   RO           23    i.timer_init        main.o
    0x00027d84   0x00000050   Code   RO         2632    i.timer_list_handler  app_timer.o
    0x00027dd4   0x0000000a   Code   RO         2633    i.timer_list_handler_sched  app_timer.o
    0x00027dde   0x00000002   PAD
    0x00027de0   0x00000068   Code   RO         2634    i.timer_list_insert  app_timer.o
    0x00027e48   0x00000088   Code   RO         2635    i.timer_list_remove  app_timer.o
    0x00027ed0   0x0000005e   Code   RO         2636    i.timer_start_op_schedule  app_timer.o
    0x00027f2e   0x00000042   Code   RO         2637    i.timer_stop_op_schedule  app_timer.o
    0x00027f70   0x00000098   Code   RO         2638    i.timer_timeouts_check  app_timer.o
    0x00028008   0x0000000a   Code   RO         2639    i.timer_timeouts_check_sched  app_timer.o
    0x00028012   0x00000026   Code   RO         2147    i.tx_byte           nrf_drv_uart.o
    0x00028038   0x00000022   Code   RO         2148    i.tx_done_event     nrf_drv_uart.o
    0x0002805a   0x00000002   PAD
    0x0002805c   0x000000c0   Code   RO           24    i.uart_event_handle  main.o
    0x0002811c   0x000000d4   Code   RO         3600    i.uart_event_handler  app_uart_fifo.o
    0x000281f0   0x0000005c   Code   RO           25    i.uart_init         main.o
    0x0002824c   0x00000142   Code   RO         2149    i.uart_irq_handler  nrf_drv_uart.o
    0x0002838e   0x0000010c   Code   RO         2150    i.uarte_irq_handler  nrf_drv_uart.o
    0x0002849a   0x00000002   PAD
    0x0002849c   0x00000024   Code   RO         3248    i.uninit            nrf_fstorage_sd.o
    0x000284c0   0x0000003c   Code   RO         2640    i.user_op_alloc     app_timer.o
    0x000284fc   0x0000000c   Code   RO         2641    i.user_op_enque     app_timer.o
    0x00028508   0x00000006   Code   RO         3249    i.wmap              nrf_fstorage_sd.o
    0x0002850e   0x00000002   PAD
    0x00028510   0x00000054   Code   RO         3250    i.write             nrf_fstorage_sd.o
    0x00028564   0x00000058   Code   RO         3251    i.write_execute     nrf_fstorage_sd.o
    0x000285bc   0x00000030   Data   RO           27    .constdata          main.o
    0x000285ec   0x00000008   Data   RO          397    .constdata          boards.o
    0x000285f4   0x0000002c   Data   RO          512    .constdata          bsp.o
    0x00028620   0x0000007c   Data   RO         1164    .constdata          ble_db_discovery.o
    0x0002869c   0x00000016   Data   RO         1363    .constdata          nrf_ble_gatt.o
    0x000286b2   0x00000002   PAD
    0x000286b4   0x00000028   Data   RO         1491    .constdata          ble_nus_c.o
    0x000286dc   0x00000047   Data   RO         1852    .constdata          nrf_drv_gpiote.o
    0x00028723   0x00000001   PAD
    0x00028724   0x00000008   Data   RO         2417    .constdata          app_button.o
    0x0002872c   0x00000030   Data   RO         3253    .constdata          nrf_fstorage_sd.o
    0x0002875c   0x00000020   Data   RO         3602    .constdata          app_uart_fifo.o
    0x0002877c   0x00000058   Data   RO         4232    .constdata          nrf_sdh.o
    0x000287d4   0x00000030   Data   RO         4359    .constdata          nrf_sdh_ble.o
    0x00028804   0x0000001c   Data   RO         4410    .constdata          nrf_sdh_soc.o
    0x00028820   0x00000020   Data   RO         4581    Region$$Table       anon$$obj.o
    0x00028840   0x00000008   Data   RO          992    sdh_ble_observers0  ble_conn_state.o
    0x00028848   0x00000010   Data   RO           29    sdh_ble_observers1  main.o
    0x00028858   0x00000008   Data   RO          620    sdh_ble_observers1  bsp_btn_ble.o
    0x00028860   0x000000a0   Data   RO           30    sdh_ble_observers2  main.o
    0x00028900   0x00000008   Data   RO           31    sdh_ble_observers3  main.o
    0x00028908   0x00000008   Data   RO         3255    sdh_req_observers0  nrf_fstorage_sd.o
    0x00028910   0x00000008   Data   RO         1598    sdh_soc_observers0  nrf_drv_clock.o
    0x00028918   0x00000008   Data   RO         3256    sdh_soc_observers0  nrf_fstorage_sd.o
    0x00028920   0x00000008   Data   RO         4360    sdh_stack_observers0  nrf_sdh_ble.o
    0x00028928   0x00000008   Data   RO         4411    sdh_stack_observers0  nrf_sdh_soc.o
    0x00028930   0x00000008   Data   RO         1599    sdh_state_observers0  nrf_drv_clock.o
    0x00028938   0x00000008   Data   RO         3257    sdh_state_observers0  nrf_fstorage_sd.o


    Execution Region RW_IRAM1 (Base: 0x20007d28, Size: 0x00002e20, Max: 0x0000be70, ABSOLUTE, COMPRESSED[0x0000001c])

    Base Addr    Size         Type   Attr      Idx    E Section Name        Object

    0x20007d28   0x000002d8   Data   RW           28    .data               main.o
    0x20008000   0x00000015   Data   RW          513    .data               bsp.o
    0x20008015   0x00000003   PAD
    0x20008018   0x00000008   Data   RW          619    .data               bsp_btn_ble.o
    0x20008020   0x0000000d   Data   RW         1165    .data               ble_db_discovery.o
    0x2000802d   0x00000003   PAD
    0x20008030   0x00000014   Data   RW         2418    .data               app_button.o
    0x20008044   0x00000014   Data   RW         2643    .data               app_timer.o
    0x20008058   0x00000008   Data   RW         3254    .data               nrf_fstorage_sd.o
    0x20008060   0x0000000f   Data   RW         3603    .data               app_uart_fifo.o
    0x2000806f   0x00000003   Data   RW         4233    .data               nrf_sdh.o
    0x20008072   0x00000002   PAD
    0x20008074   0x00000004   Data   RW         4460    .data               system_nrf52.o
    0x20008078   0x00000400   Zero   RW           26    .bss                main.o
    0x20008478   0x0000006c   Zero   RW          511    .bss                bsp.o
    0x200084e4   0x000000b8   Zero   RW          991    .bss                ble_conn_state.o
    0x2000859c   0x00000318   Zero   RW         1163    .bss                ble_db_discovery.o
    0x200088b4   0x00000014   Zero   RW         1596    .bss                nrf_drv_clock.o
    0x200088c8   0x00000058   Zero   RW         1851    .bss                nrf_drv_gpiote.o
    0x20008920   0x00000020   Zero   RW         2151    .bss                nrf_drv_uart.o
    0x20008940   0x00000020   Zero   RW         2416    .bss                app_button.o
    0x20008960   0x0000010c   Zero   RW         2642    .bss                app_timer.o
    0x20008a6c   0x0000000c   Zero   RW         2837    .bss                app_util_platform.o
    0x20008a78   0x000000b0   Zero   RW         3252    .bss                nrf_fstorage_sd.o
    0x20008b28   0x00000020   Zero   RW         3601    .bss                app_uart_fifo.o
    0x20008b48   0x00002000   Zero   RW         4437    STACK               arm_startup_nrf52.o


==============================================================================

Image component sizes


      Code (inc. data)   RO Data    RW Data    ZI Data      Debug   Object Name

       488         84          8         20         32      10079   app_button.o
        28          0          0          0          0       2105   app_error.o
        88          8          0          0          0      30481   app_error_weak.o
       170          0          0          0          0       5434   app_fifo.o
      2200        248          0         20        268      52547   app_timer.o
       602         92         32         15         32      11754   app_uart_fifo.o
       200         24          0          0         12       9914   app_util_platform.o
        36          8        512          0       8192        916   arm_startup_nrf52.o
         0          0          0          0          0        380   ble_advdata.o
         0          0          0          0          0       3252   ble_advertising.o
       400         32          8          0        184       6961   ble_conn_state.o
      2290        132        124         13        792      20399   ble_db_discovery.o
       604         14         40          0          0      17682   ble_nus_c.o
       358         26          8          0          0      11861   boards.o
      1252         78         44         21        108      10413   bsp.o
       288          8          8          8          0       3768   bsp_btn_ble.o
      1574         92        232        728       1024     138551   main.o
       374          0          0          0          0       7908   nrf_atfifo.o
       790         16         22          0          0      34074   nrf_ble_gatt.o
       516         52         16          0         20      42651   nrf_drv_clock.o
        96         12          0          0          0      27643   nrf_drv_common.o
      1542        106         71          0         88      34223   nrf_drv_gpiote.o
      2716         74          0          0         32      49425   nrf_drv_uart.o
      1284        120         72          8        176      22427   nrf_fstorage_sd.o
       916         92         88          3          0      44606   nrf_sdh.o
       296         10         56          0          0       5561   nrf_sdh_ble.o
        84          4         36          0          0       2572   nrf_sdh_soc.o
       112          0          0          0          0       2772   nrf_section_iter.o
       302          0          0          0          0       6153   sdk_mapped_flags.o
      1372        142          0          4          0       8455   system_nrf52.o

    ----------------------------------------------------------------------
     21016       1474       1412        848      10960     624967   Object Totals
         0          0         32          0          0          0   (incl. Generated)
        38          0          3          8          0          0   (incl. Padding)

    ----------------------------------------------------------------------

      Code (inc. data)   RO Data    RW Data    ZI Data      Debug   Library Member Name

        58          0          0          0          0          0   __dczerorl.o
         0          0          0          0          0          0   entry.o
         0          0          0          0          0          0   entry10a.o
         0          0          0          0          0          0   entry11a.o
         8          4          0          0          0          0   entry2.o
         4          0          0          0          0          0   entry5.o
         0          0          0          0          0          0   entry7b.o
         0          0          0          0          0          0   entry8b.o
         8          4          0          0          0          0   entry9a.o
        30          0          0          0          0          0   handlers.o
        36          8          0          0          0         68   init.o
        30          0          0          0          0         68   llshl.o
        32          0          0          0          0         68   llushr.o
        26          0          0          0          0         80   memcmp.o
        36          0          0          0          0         68   memcpya.o
        36          0          0          0          0        108   memseta.o
        14          0          0          0          0         68   strlen.o
        98          0          0          0          0         92   uldiv.o

    ----------------------------------------------------------------------
       420         16          0          0          0        620   Library Totals
         4          0          0          0          0          0   (incl. Padding)

    ----------------------------------------------------------------------

      Code (inc. data)   RO Data    RW Data    ZI Data      Debug   Library Name

       416         16          0          0          0        620   mc_w.l

    ----------------------------------------------------------------------
       420         16          0          0          0        620   Library Totals

    ----------------------------------------------------------------------

==============================================================================


      Code (inc. data)   RO Data    RW Data    ZI Data      Debug   

     21436       1490       1412        848      10960     597263   Grand Totals
     21436       1490       1412         28      10960     597263   ELF Image Totals (compressed)
     21436       1490       1412         28          0          0   ROM Totals

==============================================================================

    Total RO  Size (Code + RO Data)                22848 (  22.31kB)
    Total RW  Size (RW Data + ZI Data)             11808 (  11.53kB)
    Total ROM Size (Code + RO Data + RW Data)      22876 (  22.34kB)

==============================================================================

